ARM GAS  C:\Users\Pearl\AppData\Local\Temp\cc4hQ0L2.s 			page 1


   1              		.cpu cortex-m3
   2              		.eabi_attribute 20, 1
   3              		.eabi_attribute 21, 1
   4              		.eabi_attribute 23, 3
   5              		.eabi_attribute 24, 1
   6              		.eabi_attribute 25, 1
   7              		.eabi_attribute 26, 1
   8              		.eabi_attribute 30, 2
   9              		.eabi_attribute 34, 1
  10              		.eabi_attribute 18, 4
  11              		.file	"dbus.c"
  12              		.text
  13              	.Ltext0:
  14              		.cfi_sections	.debug_frame
  15              		.section	.text.uart_dbus_thread,"ax",%progbits
  16              		.align	1
  17              		.p2align 4,,15
  18              		.syntax unified
  19              		.thumb
  20              		.thumb_func
  21              		.fpu softvfp
  22              		.type	uart_dbus_thread, %function
  23              	uart_dbus_thread:
  24              	.LFB257:
  25              		.file 1 "./src/dbus.c"
  26              		.loc 1 78 0
  27              		.cfi_startproc
  28              		@ args = 0, pretend = 0, frame = 0
  29              		@ frame_needed = 0, uses_anonymous_args = 0
  30              	.LVL0:
  31 0000 2DE9F843 		push	{r3, r4, r5, r6, r7, r8, r9, lr}
  32              		.cfi_def_cfa_offset 32
  33              		.cfi_offset 3, -32
  34              		.cfi_offset 4, -28
  35              		.cfi_offset 5, -24
  36              		.cfi_offset 6, -20
  37              		.cfi_offset 7, -16
  38              		.cfi_offset 8, -12
  39              		.cfi_offset 9, -8
  40              		.cfi_offset 14, -4
  41              	.LBB104:
  42              	.LBB105:
  43              		.file 2 ".//os/rt/include/chregistry.h"
  44              		.loc 2 136 0
  45 0004 304D     		ldr	r5, .L11
  46 0006 314A     		ldr	r2, .L11+4
  47 0008 AB69     		ldr	r3, [r5, #24]
  48              	.LBE105:
  49              	.LBE104:
  50              		.loc 1 88 0
  51 000a 314C     		ldr	r4, .L11+8
  52              	.LBB107:
  53              	.LBB106:
  54              		.loc 2 136 0
  55 000c 9A61     		str	r2, [r3, #24]
  56              	.LVL1:
  57              	.LBE106:
ARM GAS  C:\Users\Pearl\AppData\Local\Temp\cc4hQ0L2.s 			page 2


  58              	.LBE107:
  59              		.loc 1 89 0
  60 000e 314F     		ldr	r7, .L11+12
  61              		.loc 1 92 0
  62 0010 314E     		ldr	r6, .L11+16
  63              		.loc 1 86 0
  64 0012 02E0     		b	.L2
  65              	.LVL2:
  66              	.L10:
  67              		.loc 1 100 0
  68 0014 0322     		movs	r2, #3
  69 0016 1A70     		strb	r2, [r3]
  70              	.L5:
  71 0018 AB69     		ldr	r3, [r5, #24]
  72              	.LVL3:
  73              	.L2:
  74              		.loc 1 86 0
  75 001a 93F82130 		ldrb	r3, [r3, #33]	@ zero_extendqisi2
  76 001e 03F00403 		and	r3, r3, #4
  77 0022 03F0FF08 		and	r8, r3, #255
  78 0026 002B     		cmp	r3, #0
  79 0028 4CD1     		bne	.L9
  80              		.loc 1 88 0
  81 002a 2046     		mov	r0, r4
  82 002c FFF7FEFF 		bl	uartStopReceive
  83              	.LVL4:
  84              		.loc 1 89 0
  85 0030 284A     		ldr	r2, .L11+12
  86 0032 1221     		movs	r1, #18
  87 0034 2046     		mov	r0, r4
  88 0036 FFF7FEFF 		bl	uartStartReceive
  89              	.LVL5:
  90              	.LBB108:
  91              	.LBB109:
  92              	.LBB110:
  93              	.LBB111:
  94              		.file 3 ".//os/common/ext/ARM/CMSIS/Core/Include/cmsis_gcc.h"
  95              		.loc 3 493 0
  96 003a 4FF02009 		mov	r9, #32
  97              		.syntax unified
  98              	@ 493 ".//os/common/ext/ARM/CMSIS/Core/Include/cmsis_gcc.h" 1
  99 003e 89F31188 		MSR basepri, r9
 100              	@ 0 "" 2
 101              	.LVL6:
 102              		.thumb
 103              		.syntax unified
 104              	.LBE111:
 105              	.LBE110:
 106              	.LBE109:
 107              	.LBE108:
 108              		.loc 1 92 0
 109 0042 4FF0FF31 		mov	r1, #-1
 110 0046 3046     		mov	r0, r6
 111 0048 FFF7FEFF 		bl	chThdSuspendTimeoutS
 112              	.LVL7:
 113              	.LBB112:
 114              	.LBB113:
ARM GAS  C:\Users\Pearl\AppData\Local\Temp\cc4hQ0L2.s 			page 3


 115              	.LBB114:
 116              	.LBB115:
 117              	.LBB116:
 118              		.loc 3 493 0
 119              		.syntax unified
 120              	@ 493 ".//os/common/ext/ARM/CMSIS/Core/Include/cmsis_gcc.h" 1
 121 004c 88F31188 		MSR basepri, r8
 122              	@ 0 "" 2
 123              	.LVL8:
 124              		.thumb
 125              		.syntax unified
 126              	.LBE116:
 127              	.LBE115:
 128              	.LBE114:
 129              	.LBE113:
 130              	.LBE112:
 131              		.loc 1 97 0
 132 0050 224B     		ldr	r3, .L11+20
 133 0052 1A78     		ldrb	r2, [r3]	@ zero_extendqisi2
 134 0054 002A     		cmp	r2, #0
 135 0056 DDD0     		beq	.L10
 136              	.LVL9:
 137              	.LBB117:
 138              	.LBB118:
 139              	.LBB119:
 140              	.LBB120:
 141              		.loc 3 493 0
 142              		.syntax unified
 143              	@ 493 ".//os/common/ext/ARM/CMSIS/Core/Include/cmsis_gcc.h" 1
 144 0058 89F31188 		MSR basepri, r9
 145              	@ 0 "" 2
 146              	.LVL10:
 147              		.thumb
 148              		.syntax unified
 149              	.LBE120:
 150              	.LBE119:
 151              	.LBE118:
 152              	.LBE117:
 153              	.LBB121:
 154              	.LBB122:
 155              		.loc 1 25 0
 156 005c B978     		ldrb	r1, [r7, #2]	@ zero_extendqisi2
 157              		.loc 1 26 0
 158 005e F878     		ldrb	r0, [r7, #3]	@ zero_extendqisi2
 159 0060 4FEA911E 		lsr	lr, r1, #6
 160              		.loc 1 24 0
 161 0064 7B78     		ldrb	r3, [r7, #1]	@ zero_extendqisi2
 162              		.loc 1 27 0
 163 0066 7A79     		ldrb	r2, [r7, #5]	@ zero_extendqisi2
 164              		.loc 1 26 0
 165 0068 97F80480 		ldrb	r8, [r7, #4]	@ zero_extendqisi2
 166 006c 4EEA800E 		orr	lr, lr, r0, lsl #2
 167              		.loc 1 24 0
 168 0070 3878     		ldrb	r0, [r7]	@ zero_extendqisi2
 169              		.loc 1 25 0
 170 0072 4901     		lsls	r1, r1, #5
 171              		.loc 1 24 0
ARM GAS  C:\Users\Pearl\AppData\Local\Temp\cc4hQ0L2.s 			page 4


 172 0074 DFF868C0 		ldr	ip, .L11+24
 173              		.loc 1 26 0
 174 0078 4EEA882E 		orr	lr, lr, r8, lsl #10
 175              		.loc 1 25 0
 176 007c 41EAD301 		orr	r1, r1, r3, lsr #3
 177              		.loc 1 24 0
 178 0080 40EA0320 		orr	r0, r0, r3, lsl #8
 179              		.loc 1 27 0
 180 0084 D301     		lsls	r3, r2, #7
 181 0086 43EA5803 		orr	r3, r3, r8, lsr #1
 182              		.loc 1 28 0
 183 008a 1209     		lsrs	r2, r2, #4
 184              		.loc 1 26 0
 185 008c CEF30A0E 		ubfx	lr, lr, #0, #11
 186              		.loc 1 27 0
 187 0090 C3F30A03 		ubfx	r3, r3, #0, #11
 188              		.loc 1 25 0
 189 0094 C1F30A01 		ubfx	r1, r1, #0, #11
 190              		.loc 1 24 0
 191 0098 C0F30A00 		ubfx	r0, r0, #0, #11
 192              		.loc 1 26 0
 193 009c ACF804E0 		strh	lr, [ip, #4]	@ movhi
 194              		.loc 1 28 0
 195 00a0 4FEAA20E 		asr	lr, r2, #2
 196              		.loc 1 29 0
 197 00a4 02F00302 		and	r2, r2, #3
 198              		.loc 1 27 0
 199 00a8 ACF80630 		strh	r3, [ip, #6]	@ movhi
 200              		.loc 1 25 0
 201 00ac ACF80210 		strh	r1, [ip, #2]	@ movhi
 202              		.loc 1 24 0
 203 00b0 ACF80000 		strh	r0, [ip]	@ movhi
 204              		.loc 1 28 0
 205 00b4 8CF808E0 		strb	lr, [ip, #8]
 206              		.loc 1 29 0
 207 00b8 8CF80920 		strb	r2, [ip, #9]
 208              	.LVL11:
 209              	.LBE122:
 210              	.LBE121:
 211              	.LBB123:
 212              	.LBB124:
 213              	.LBB125:
 214              	.LBB126:
 215              	.LBB127:
 216              		.loc 3 493 0
 217 00bc 0023     		movs	r3, #0
 218              		.syntax unified
 219              	@ 493 ".//os/common/ext/ARM/CMSIS/Core/Include/cmsis_gcc.h" 1
 220 00be 83F31188 		MSR basepri, r3
 221              	@ 0 "" 2
 222              	.LVL12:
 223              		.thumb
 224              		.syntax unified
 225 00c2 A9E7     		b	.L5
 226              	.LVL13:
 227              	.L9:
 228              	.LBE127:
ARM GAS  C:\Users\Pearl\AppData\Local\Temp\cc4hQ0L2.s 			page 5


 229              	.LBE126:
 230              	.LBE125:
 231              	.LBE124:
 232              	.LBE123:
 233              		.loc 1 116 0
 234 00c4 BDE8F883 		pop	{r3, r4, r5, r6, r7, r8, r9, pc}
 235              	.L12:
 236              		.align	2
 237              	.L11:
 238 00c8 00000000 		.word	ch
 239 00cc 00000000 		.word	.LC0
 240 00d0 00000000 		.word	UARTD2
 241 00d4 00000000 		.word	.LANCHOR0
 242 00d8 00000000 		.word	.LANCHOR1
 243 00dc 00000000 		.word	.LANCHOR2
 244 00e0 00000000 		.word	.LANCHOR3
 245              		.cfi_endproc
 246              	.LFE257:
 247              		.size	uart_dbus_thread, .-uart_dbus_thread
 248              		.section	.text.rxend,"ax",%progbits
 249              		.align	1
 250              		.p2align 4,,15
 251              		.syntax unified
 252              		.thumb
 253              		.thumb_func
 254              		.fpu softvfp
 255              		.type	rxend, %function
 256              	rxend:
 257              	.LFB254:
 258              		.loc 1 36 0
 259              		.cfi_startproc
 260              		@ args = 0, pretend = 0, frame = 0
 261              		@ frame_needed = 0, uses_anonymous_args = 0
 262              	.LVL14:
 263 0000 08B5     		push	{r3, lr}
 264              		.cfi_def_cfa_offset 8
 265              		.cfi_offset 3, -8
 266              		.cfi_offset 14, -4
 267              	.LBB128:
 268              	.LBB129:
 269              	.LBB130:
 270              	.LBB131:
 271              	.LBB132:
 272              		.loc 3 493 0
 273 0002 2023     		movs	r3, #32
 274              		.syntax unified
 275              	@ 493 ".//os/common/ext/ARM/CMSIS/Core/Include/cmsis_gcc.h" 1
 276 0004 83F31188 		MSR basepri, r3
 277              	@ 0 "" 2
 278              	.LVL15:
 279              		.thumb
 280              		.syntax unified
 281              	.LBE132:
 282              	.LBE131:
 283              	.LBE130:
 284              	.LBE129:
 285              	.LBE128:
ARM GAS  C:\Users\Pearl\AppData\Local\Temp\cc4hQ0L2.s 			page 6


 286              		.loc 1 38 0
 287 0008 0021     		movs	r1, #0
 288 000a 0348     		ldr	r0, .L15
 289              	.LVL16:
 290 000c FFF7FEFF 		bl	chThdResumeI
 291              	.LVL17:
 292              	.LBB133:
 293              	.LBB134:
 294              	.LBB135:
 295              	.LBB136:
 296              	.LBB137:
 297              		.loc 3 493 0
 298 0010 0023     		movs	r3, #0
 299              		.syntax unified
 300              	@ 493 ".//os/common/ext/ARM/CMSIS/Core/Include/cmsis_gcc.h" 1
 301 0012 83F31188 		MSR basepri, r3
 302              	@ 0 "" 2
 303              	.LVL18:
 304              		.thumb
 305              		.syntax unified
 306              	.LBE137:
 307              	.LBE136:
 308              	.LBE135:
 309              	.LBE134:
 310              	.LBE133:
 311              		.loc 1 40 0
 312 0016 08BD     		pop	{r3, pc}
 313              	.L16:
 314              		.align	2
 315              	.L15:
 316 0018 00000000 		.word	.LANCHOR1
 317              		.cfi_endproc
 318              	.LFE254:
 319              		.size	rxend, .-rxend
 320              		.section	.text.RC_get,"ax",%progbits
 321              		.align	1
 322              		.p2align 4,,15
 323              		.global	RC_get
 324              		.syntax unified
 325              		.thumb
 326              		.thumb_func
 327              		.fpu softvfp
 328              		.type	RC_get, %function
 329              	RC_get:
 330              	.LFB255:
 331              		.loc 1 59 0
 332              		.cfi_startproc
 333              		@ args = 0, pretend = 0, frame = 0
 334              		@ frame_needed = 0, uses_anonymous_args = 0
 335              		@ link register save eliminated.
 336              		.loc 1 61 0
 337 0000 0048     		ldr	r0, .L18
 338 0002 7047     		bx	lr
 339              	.L19:
 340              		.align	2
 341              	.L18:
 342 0004 00000000 		.word	.LANCHOR3
ARM GAS  C:\Users\Pearl\AppData\Local\Temp\cc4hQ0L2.s 			page 7


 343              		.cfi_endproc
 344              	.LFE255:
 345              		.size	RC_get, .-RC_get
 346              		.section	.text.RC_init,"ax",%progbits
 347              		.align	1
 348              		.p2align 4,,15
 349              		.global	RC_init
 350              		.syntax unified
 351              		.thumb
 352              		.thumb_func
 353              		.fpu softvfp
 354              		.type	RC_init, %function
 355              	RC_init:
 356              	.LFB258:
 357              		.loc 1 122 0
 358              		.cfi_startproc
 359              		@ args = 0, pretend = 0, frame = 0
 360              		@ frame_needed = 0, uses_anonymous_args = 0
 361 0000 30B5     		push	{r4, r5, lr}
 362              		.cfi_def_cfa_offset 12
 363              		.cfi_offset 4, -12
 364              		.cfi_offset 5, -8
 365              		.cfi_offset 14, -4
 366              	.LBB138:
 367              	.LBB139:
 368              		.loc 1 65 0
 369 0002 4FF00422 		mov	r2, #67109888
 370              		.loc 1 68 0
 371 0006 0024     		movs	r4, #0
 372              		.loc 1 65 0
 373 0008 0B4B     		ldr	r3, .L22
 374              	.LBE139:
 375              	.LBE138:
 376              		.loc 1 125 0
 377 000a 0C4D     		ldr	r5, .L22+4
 378              		.loc 1 122 0
 379 000c 83B0     		sub	sp, sp, #12
 380              		.cfi_def_cfa_offset 24
 381              	.LBB141:
 382              	.LBB140:
 383              		.loc 1 66 0
 384 000e C3E90022 		strd	r2, r2, [r3]
 385              		.loc 1 68 0
 386 0012 1C81     		strh	r4, [r3, #8]	@ movhi
 387              	.LBE140:
 388              	.LBE141:
 389              		.loc 1 125 0
 390 0014 2846     		mov	r0, r5
 391 0016 0A49     		ldr	r1, .L22+8
 392 0018 FFF7FEFF 		bl	uartStart
 393              	.LVL19:
 394              		.loc 1 126 0
 395 001c 6869     		ldr	r0, [r5, #20]
 396 001e FFF7FEFF 		bl	dmaStreamRelease
 397              	.LVL20:
 398              		.loc 1 128 0
 399 0022 0094     		str	r4, [sp]
ARM GAS  C:\Users\Pearl\AppData\Local\Temp\cc4hQ0L2.s 			page 8


 400 0024 074B     		ldr	r3, .L22+12
 401 0026 8722     		movs	r2, #135
 402 0028 4FF43271 		mov	r1, #712
 403 002c 0648     		ldr	r0, .L22+16
 404 002e FFF7FEFF 		bl	chThdCreateStatic
 405              	.LVL21:
 406              		.loc 1 131 0
 407 0032 03B0     		add	sp, sp, #12
 408              		.cfi_def_cfa_offset 12
 409              		@ sp needed
 410 0034 30BD     		pop	{r4, r5, pc}
 411              	.L23:
 412 0036 00BF     		.align	2
 413              	.L22:
 414 0038 00000000 		.word	.LANCHOR3
 415 003c 00000000 		.word	UARTD2
 416 0040 00000000 		.word	.LANCHOR4
 417 0044 00000000 		.word	uart_dbus_thread
 418 0048 00000000 		.word	.LANCHOR5
 419              		.cfi_endproc
 420              	.LFE258:
 421              		.size	RC_init, .-RC_init
 422              		.section	.bss.RC_Ctl,"aw",%nobits
 423              		.align	2
 424              		.set	.LANCHOR3,. + 0
 425              		.type	RC_Ctl, %object
 426              		.size	RC_Ctl, 10
 427              	RC_Ctl:
 428 0000 00000000 		.space	10
 428      00000000 
 428      0000
 429              		.section	.bss.rc_state,"aw",%nobits
 430              		.set	.LANCHOR2,. + 0
 431              		.type	rc_state, %object
 432              		.size	rc_state, 1
 433              	rc_state:
 434 0000 00       		.space	1
 435              		.section	.bss.rxbuf,"aw",%nobits
 436              		.align	2
 437              		.set	.LANCHOR0,. + 0
 438              		.type	rxbuf, %object
 439              		.size	rxbuf, 18
 440              	rxbuf:
 441 0000 00000000 		.space	18
 441      00000000 
 441      00000000 
 441      00000000 
 441      0000
 442              		.section	.bss.uart_dbus_thread_handler,"aw",%nobits
 443              		.align	2
 444              		.set	.LANCHOR1,. + 0
 445              		.type	uart_dbus_thread_handler, %object
 446              		.size	uart_dbus_thread_handler, 4
 447              	uart_dbus_thread_handler:
 448 0000 00000000 		.space	4
 449              		.section	.bss.uart_dbus_thread_wa,"aw",%nobits
 450              		.align	3
ARM GAS  C:\Users\Pearl\AppData\Local\Temp\cc4hQ0L2.s 			page 9


 451              		.set	.LANCHOR5,. + 0
 452              		.type	uart_dbus_thread_wa, %object
 453              		.size	uart_dbus_thread_wa, 712
 454              	uart_dbus_thread_wa:
 455 0000 00000000 		.space	712
 455      00000000 
 455      00000000 
 455      00000000 
 455      00000000 
 456              		.section	.data.uart_cfg,"aw",%progbits
 457              		.align	2
 458              		.set	.LANCHOR4,. + 0
 459              		.type	uart_cfg, %object
 460              		.size	uart_cfg, 32
 461              	uart_cfg:
 462 0000 00000000 		.word	0
 463 0004 00000000 		.word	0
 464 0008 00000000 		.word	rxend
 465 000c 00000000 		.word	0
 466 0010 00000000 		.word	0
 467 0014 A0860100 		.word	100000
 468 0018 0004     		.short	1024
 469 001a 0000     		.short	0
 470 001c 0000     		.short	0
 471 001e 0000     		.space	2
 472              		.section	.rodata.uart_dbus_thread.str1.4,"aMS",%progbits,1
 473              		.align	2
 474              	.LC0:
 475 0000 75617274 		.ascii	"uart dbus receiver\000"
 475      20646275 
 475      73207265 
 475      63656976 
 475      657200
 476              		.text
 477              	.Letext0:
 478              		.file 4 "c:\\chibistudio\\tools\\gnu tools arm embedded\\7.0 2017q4\\lib\\gcc\\arm-none-eabi\\7.2.
 479              		.file 5 "c:\\chibistudio\\tools\\gnu tools arm embedded\\7.0 2017q4\\arm-none-eabi\\include\\machi
 480              		.file 6 "c:\\chibistudio\\tools\\gnu tools arm embedded\\7.0 2017q4\\arm-none-eabi\\include\\sys\\
 481              		.file 7 ".//os/common/ports/ARMCMx/compilers/GCC/chtypes.h"
 482              		.file 8 ".//os/rt/include/chsystypes.h"
 483              		.file 9 ".//os/rt/include/chschd.h"
 484              		.file 10 ".//os/rt/include/chtime.h"
 485              		.file 11 ".//os/common/ext/ARM/CMSIS/Core/Include/core_cm3.h"
 486              		.file 12 ".//os/common/ext/ST/STM32F1xx/system_stm32f1xx.h"
 487              		.file 13 ".//os/common/ext/ST/STM32F1xx/stm32f103xb.h"
 488              		.file 14 ".//os/common/ports/ARMCMx/chcore.h"
 489              		.file 15 ".//os/common/ports/ARMCMx/chcore_v7m.h"
 490              		.file 16 ".//os/rt/include/chsem.h"
 491              		.file 17 ".//os/rt/include/chmtx.h"
 492              		.file 18 ".//os/rt/include/chsys.h"
 493              		.file 19 ".//os/rt/include/chevents.h"
 494              		.file 20 ".//os/lib/include/chmemcore.h"
 495              		.file 21 ".//os/lib/include/chmempools.h"
 496              		.file 22 ".//os/lib/include/chfactory.h"
 497              		.file 23 ".//os/hal/ports/STM32/LLD/DMAv1/stm32_dma.h"
 498              		.file 24 ".//os/hal/include/hal_pal.h"
 499              		.file 25 ".//os/hal/ports/STM32/LLD/GPIOv1/hal_pal_lld.h"
ARM GAS  C:\Users\Pearl\AppData\Local\Temp\cc4hQ0L2.s 			page 10


 500              		.file 26 ".//os/hal/include/hal_can.h"
 501              		.file 27 ".//os/hal/ports/STM32/LLD/CANv1/hal_can_lld.h"
 502              		.file 28 ".//os/hal/include/hal_uart.h"
 503              		.file 29 ".//os/hal/ports/STM32/LLD/USARTv1/hal_uart_lld.h"
 504              		.file 30 "./src/dbus.h"
 505              		.file 31 ".//os/rt/include/chthreads.h"
 506              		.section	.debug_info,"",%progbits
 507              	.Ldebug_info0:
 508 0000 C9170000 		.4byte	0x17c9
 509 0004 0400     		.2byte	0x4
 510 0006 00000000 		.4byte	.Ldebug_abbrev0
 511 000a 04       		.byte	0x4
 512 000b 01       		.uleb128 0x1
 513 000c 1B080000 		.4byte	.LASF298
 514 0010 0C       		.byte	0xc
 515 0011 4E010000 		.4byte	.LASF299
 516 0015 C9060000 		.4byte	.LASF300
 517 0019 30000000 		.4byte	.Ldebug_ranges0+0x30
 518 001d 00000000 		.4byte	0
 519 0021 00000000 		.4byte	.Ldebug_line0
 520 0025 02       		.uleb128 0x2
 521 0026 04       		.byte	0x4
 522 0027 05       		.byte	0x5
 523 0028 696E7400 		.ascii	"int\000"
 524 002c 03       		.uleb128 0x3
 525 002d 1B000000 		.4byte	.LASF4
 526 0031 04       		.byte	0x4
 527 0032 D8       		.byte	0xd8
 528 0033 37000000 		.4byte	0x37
 529 0037 04       		.uleb128 0x4
 530 0038 04       		.byte	0x4
 531 0039 07       		.byte	0x7
 532 003a A9070000 		.4byte	.LASF0
 533 003e 04       		.uleb128 0x4
 534 003f 08       		.byte	0x8
 535 0040 05       		.byte	0x5
 536 0041 68060000 		.4byte	.LASF1
 537 0045 04       		.uleb128 0x4
 538 0046 08       		.byte	0x8
 539 0047 04       		.byte	0x4
 540 0048 0B090000 		.4byte	.LASF2
 541 004c 04       		.uleb128 0x4
 542 004d 01       		.byte	0x1
 543 004e 06       		.byte	0x6
 544 004f 8E020000 		.4byte	.LASF3
 545 0053 03       		.uleb128 0x3
 546 0054 98010000 		.4byte	.LASF5
 547 0058 05       		.byte	0x5
 548 0059 2B       		.byte	0x2b
 549 005a 5E000000 		.4byte	0x5e
 550 005e 04       		.uleb128 0x4
 551 005f 01       		.byte	0x1
 552 0060 08       		.byte	0x8
 553 0061 17030000 		.4byte	.LASF6
 554 0065 04       		.uleb128 0x4
 555 0066 02       		.byte	0x2
 556 0067 05       		.byte	0x5
ARM GAS  C:\Users\Pearl\AppData\Local\Temp\cc4hQ0L2.s 			page 11


 557 0068 5D0B0000 		.4byte	.LASF7
 558 006c 03       		.uleb128 0x3
 559 006d CF030000 		.4byte	.LASF8
 560 0071 05       		.byte	0x5
 561 0072 39       		.byte	0x39
 562 0073 77000000 		.4byte	0x77
 563 0077 04       		.uleb128 0x4
 564 0078 02       		.byte	0x2
 565 0079 07       		.byte	0x7
 566 007a 910C0000 		.4byte	.LASF9
 567 007e 03       		.uleb128 0x3
 568 007f DF0C0000 		.4byte	.LASF10
 569 0083 05       		.byte	0x5
 570 0084 4D       		.byte	0x4d
 571 0085 89000000 		.4byte	0x89
 572 0089 04       		.uleb128 0x4
 573 008a 04       		.byte	0x4
 574 008b 05       		.byte	0x5
 575 008c C6010000 		.4byte	.LASF11
 576 0090 03       		.uleb128 0x3
 577 0091 55060000 		.4byte	.LASF12
 578 0095 05       		.byte	0x5
 579 0096 4F       		.byte	0x4f
 580 0097 9B000000 		.4byte	0x9b
 581 009b 04       		.uleb128 0x4
 582 009c 04       		.byte	0x4
 583 009d 07       		.byte	0x7
 584 009e E1040000 		.4byte	.LASF13
 585 00a2 03       		.uleb128 0x3
 586 00a3 CC040000 		.4byte	.LASF14
 587 00a7 05       		.byte	0x5
 588 00a8 69       		.byte	0x69
 589 00a9 AD000000 		.4byte	0xad
 590 00ad 04       		.uleb128 0x4
 591 00ae 08       		.byte	0x8
 592 00af 07       		.byte	0x7
 593 00b0 BC090000 		.4byte	.LASF15
 594 00b4 03       		.uleb128 0x3
 595 00b5 A1020000 		.4byte	.LASF16
 596 00b9 06       		.byte	0x6
 597 00ba 18       		.byte	0x18
 598 00bb 53000000 		.4byte	0x53
 599 00bf 05       		.uleb128 0x5
 600 00c0 B4000000 		.4byte	0xb4
 601 00c4 03       		.uleb128 0x3
 602 00c5 DA090000 		.4byte	.LASF17
 603 00c9 06       		.byte	0x6
 604 00ca 24       		.byte	0x24
 605 00cb 6C000000 		.4byte	0x6c
 606 00cf 06       		.uleb128 0x6
 607 00d0 C4000000 		.4byte	0xc4
 608 00d4 03       		.uleb128 0x3
 609 00d5 6F000000 		.4byte	.LASF18
 610 00d9 06       		.byte	0x6
 611 00da 2C       		.byte	0x2c
 612 00db 7E000000 		.4byte	0x7e
 613 00df 06       		.uleb128 0x6
ARM GAS  C:\Users\Pearl\AppData\Local\Temp\cc4hQ0L2.s 			page 12


 614 00e0 D4000000 		.4byte	0xd4
 615 00e4 03       		.uleb128 0x3
 616 00e5 720C0000 		.4byte	.LASF19
 617 00e9 06       		.byte	0x6
 618 00ea 30       		.byte	0x30
 619 00eb 90000000 		.4byte	0x90
 620 00ef 06       		.uleb128 0x6
 621 00f0 E4000000 		.4byte	0xe4
 622 00f4 03       		.uleb128 0x3
 623 00f5 740B0000 		.4byte	.LASF20
 624 00f9 06       		.byte	0x6
 625 00fa 3C       		.byte	0x3c
 626 00fb A2000000 		.4byte	0xa2
 627 00ff 03       		.uleb128 0x3
 628 0100 E20A0000 		.4byte	.LASF21
 629 0104 07       		.byte	0x7
 630 0105 2A       		.byte	0x2a
 631 0106 B4000000 		.4byte	0xb4
 632 010a 03       		.uleb128 0x3
 633 010b F6010000 		.4byte	.LASF22
 634 010f 07       		.byte	0x7
 635 0110 2B       		.byte	0x2b
 636 0111 B4000000 		.4byte	0xb4
 637 0115 03       		.uleb128 0x3
 638 0116 280C0000 		.4byte	.LASF23
 639 011a 07       		.byte	0x7
 640 011b 2C       		.byte	0x2c
 641 011c B4000000 		.4byte	0xb4
 642 0120 03       		.uleb128 0x3
 643 0121 55000000 		.4byte	.LASF24
 644 0125 07       		.byte	0x7
 645 0126 2E       		.byte	0x2e
 646 0127 E4000000 		.4byte	0xe4
 647 012b 03       		.uleb128 0x3
 648 012c FB090000 		.4byte	.LASF25
 649 0130 07       		.byte	0x7
 650 0131 2F       		.byte	0x2f
 651 0132 D4000000 		.4byte	0xd4
 652 0136 03       		.uleb128 0x3
 653 0137 A9020000 		.4byte	.LASF26
 654 013b 07       		.byte	0x7
 655 013c 31       		.byte	0x31
 656 013d E4000000 		.4byte	0xe4
 657 0141 03       		.uleb128 0x3
 658 0142 120A0000 		.4byte	.LASF27
 659 0146 07       		.byte	0x7
 660 0147 32       		.byte	0x32
 661 0148 E4000000 		.4byte	0xe4
 662 014c 03       		.uleb128 0x3
 663 014d 6C040000 		.4byte	.LASF28
 664 0151 07       		.byte	0x7
 665 0152 33       		.byte	0x33
 666 0153 D4000000 		.4byte	0xd4
 667 0157 03       		.uleb128 0x3
 668 0158 E6050000 		.4byte	.LASF29
 669 015c 07       		.byte	0x7
 670 015d 34       		.byte	0x34
ARM GAS  C:\Users\Pearl\AppData\Local\Temp\cc4hQ0L2.s 			page 13


 671 015e E4000000 		.4byte	0xe4
 672 0162 03       		.uleb128 0x3
 673 0163 02090000 		.4byte	.LASF30
 674 0167 08       		.byte	0x8
 675 0168 34       		.byte	0x34
 676 0169 6D010000 		.4byte	0x16d
 677 016d 07       		.uleb128 0x7
 678 016e 3E050000 		.4byte	.LASF48
 679 0172 44       		.byte	0x44
 680 0173 09       		.byte	0x9
 681 0174 8E       		.byte	0x8e
 682 0175 4B020000 		.4byte	0x24b
 683 0179 08       		.uleb128 0x8
 684 017a 4F0A0000 		.4byte	.LASF31
 685 017e 09       		.byte	0x9
 686 017f 8F       		.byte	0x8f
 687 0180 80020000 		.4byte	0x280
 688 0184 00       		.byte	0
 689 0185 08       		.uleb128 0x8
 690 0186 77010000 		.4byte	.LASF32
 691 018a 09       		.byte	0x9
 692 018b 90       		.byte	0x90
 693 018c 20010000 		.4byte	0x120
 694 0190 08       		.byte	0x8
 695 0191 09       		.uleb128 0x9
 696 0192 63747800 		.ascii	"ctx\000"
 697 0196 09       		.byte	0x9
 698 0197 91       		.byte	0x91
 699 0198 1B080000 		.4byte	0x81b
 700 019c 0C       		.byte	0xc
 701 019d 08       		.uleb128 0x8
 702 019e 6C0C0000 		.4byte	.LASF33
 703 01a2 09       		.byte	0x9
 704 01a3 93       		.byte	0x93
 705 01a4 56020000 		.4byte	0x256
 706 01a8 10       		.byte	0x10
 707 01a9 08       		.uleb128 0x8
 708 01aa CD050000 		.4byte	.LASF34
 709 01ae 09       		.byte	0x9
 710 01af 94       		.byte	0x94
 711 01b0 56020000 		.4byte	0x256
 712 01b4 14       		.byte	0x14
 713 01b5 08       		.uleb128 0x8
 714 01b6 0C0B0000 		.4byte	.LASF35
 715 01ba 09       		.byte	0x9
 716 01bb 9B       		.byte	0x9b
 717 01bc 7F090000 		.4byte	0x97f
 718 01c0 18       		.byte	0x18
 719 01c1 08       		.uleb128 0x8
 720 01c2 BD0A0000 		.4byte	.LASF36
 721 01c6 09       		.byte	0x9
 722 01c7 A4       		.byte	0xa4
 723 01c8 96090000 		.4byte	0x996
 724 01cc 1C       		.byte	0x1c
 725 01cd 08       		.uleb128 0x8
 726 01ce 29010000 		.4byte	.LASF37
 727 01d2 09       		.byte	0x9
ARM GAS  C:\Users\Pearl\AppData\Local\Temp\cc4hQ0L2.s 			page 14


 728 01d3 A9       		.byte	0xa9
 729 01d4 0A010000 		.4byte	0x10a
 730 01d8 20       		.byte	0x20
 731 01d9 08       		.uleb128 0x8
 732 01da FE030000 		.4byte	.LASF38
 733 01de 09       		.byte	0x9
 734 01df AD       		.byte	0xad
 735 01e0 FF000000 		.4byte	0xff
 736 01e4 21       		.byte	0x21
 737 01e5 08       		.uleb128 0x8
 738 01e6 4A0A0000 		.4byte	.LASF39
 739 01ea 09       		.byte	0x9
 740 01eb B2       		.byte	0xb2
 741 01ec 15010000 		.4byte	0x115
 742 01f0 22       		.byte	0x22
 743 01f1 0A       		.uleb128 0xa
 744 01f2 7500     		.ascii	"u\000"
 745 01f4 09       		.byte	0x9
 746 01f5 0301     		.2byte	0x103
 747 01f7 B5080000 		.4byte	0x8b5
 748 01fb 24       		.byte	0x24
 749 01fc 0B       		.uleb128 0xb
 750 01fd 180C0000 		.4byte	.LASF40
 751 0201 09       		.byte	0x9
 752 0202 0801     		.2byte	0x108
 753 0204 5C020000 		.4byte	0x25c
 754 0208 28       		.byte	0x28
 755 0209 0B       		.uleb128 0xb
 756 020a 9F0B0000 		.4byte	.LASF41
 757 020e 09       		.byte	0x9
 758 020f 0E01     		.2byte	0x10e
 759 0211 80020000 		.4byte	0x280
 760 0215 2C       		.byte	0x2c
 761 0216 0B       		.uleb128 0xb
 762 0217 FF010000 		.4byte	.LASF42
 763 021b 09       		.byte	0x9
 764 021c 1401     		.2byte	0x114
 765 021e 36010000 		.4byte	0x136
 766 0222 34       		.byte	0x34
 767 0223 0B       		.uleb128 0xb
 768 0224 60060000 		.4byte	.LASF43
 769 0228 09       		.byte	0x9
 770 0229 1B01     		.2byte	0x11b
 771 022b 79090000 		.4byte	0x979
 772 022f 38       		.byte	0x38
 773 0230 0B       		.uleb128 0xb
 774 0231 DD050000 		.4byte	.LASF44
 775 0235 09       		.byte	0x9
 776 0236 1F01     		.2byte	0x11f
 777 0238 20010000 		.4byte	0x120
 778 023c 3C       		.byte	0x3c
 779 023d 0B       		.uleb128 0xb
 780 023e 26040000 		.4byte	.LASF45
 781 0242 09       		.byte	0x9
 782 0243 2601     		.2byte	0x126
 783 0245 33030000 		.4byte	0x333
 784 0249 40       		.byte	0x40
ARM GAS  C:\Users\Pearl\AppData\Local\Temp\cc4hQ0L2.s 			page 15


 785 024a 00       		.byte	0
 786 024b 03       		.uleb128 0x3
 787 024c 1E090000 		.4byte	.LASF46
 788 0250 08       		.byte	0x8
 789 0251 39       		.byte	0x39
 790 0252 56020000 		.4byte	0x256
 791 0256 0C       		.uleb128 0xc
 792 0257 04       		.byte	0x4
 793 0258 62010000 		.4byte	0x162
 794 025c 03       		.uleb128 0x3
 795 025d 3D0C0000 		.4byte	.LASF47
 796 0261 08       		.byte	0x8
 797 0262 3E       		.byte	0x3e
 798 0263 67020000 		.4byte	0x267
 799 0267 07       		.uleb128 0x7
 800 0268 12060000 		.4byte	.LASF49
 801 026c 04       		.byte	0x4
 802 026d 09       		.byte	0x9
 803 026e 7C       		.byte	0x7c
 804 026f 80020000 		.4byte	0x280
 805 0273 08       		.uleb128 0x8
 806 0274 480D0000 		.4byte	.LASF50
 807 0278 09       		.byte	0x9
 808 0279 7D       		.byte	0x7d
 809 027a 56020000 		.4byte	0x256
 810 027e 00       		.byte	0
 811 027f 00       		.byte	0
 812 0280 03       		.uleb128 0x3
 813 0281 08020000 		.4byte	.LASF51
 814 0285 08       		.byte	0x8
 815 0286 45       		.byte	0x45
 816 0287 8B020000 		.4byte	0x28b
 817 028b 07       		.uleb128 0x7
 818 028c 010A0000 		.4byte	.LASF52
 819 0290 08       		.byte	0x8
 820 0291 09       		.byte	0x9
 821 0292 83       		.byte	0x83
 822 0293 B0020000 		.4byte	0x2b0
 823 0297 08       		.uleb128 0x8
 824 0298 480D0000 		.4byte	.LASF50
 825 029c 09       		.byte	0x9
 826 029d 84       		.byte	0x84
 827 029e 56020000 		.4byte	0x256
 828 02a2 00       		.byte	0
 829 02a3 08       		.uleb128 0x8
 830 02a4 5E0D0000 		.4byte	.LASF53
 831 02a8 09       		.byte	0x9
 832 02a9 85       		.byte	0x85
 833 02aa 56020000 		.4byte	0x256
 834 02ae 04       		.byte	0x4
 835 02af 00       		.byte	0
 836 02b0 03       		.uleb128 0x3
 837 02b1 C0050000 		.4byte	.LASF54
 838 02b5 08       		.byte	0x8
 839 02b6 4C       		.byte	0x4c
 840 02b7 BB020000 		.4byte	0x2bb
 841 02bb 0D       		.uleb128 0xd
ARM GAS  C:\Users\Pearl\AppData\Local\Temp\cc4hQ0L2.s 			page 16


 842 02bc 97040000 		.4byte	.LASF55
 843 02c0 1C       		.byte	0x1c
 844 02c1 09       		.byte	0x9
 845 02c2 5E01     		.2byte	0x15e
 846 02c4 17030000 		.4byte	0x317
 847 02c8 0B       		.uleb128 0xb
 848 02c9 4F0A0000 		.4byte	.LASF31
 849 02cd 09       		.byte	0x9
 850 02ce 5F01     		.2byte	0x15f
 851 02d0 80020000 		.4byte	0x280
 852 02d4 00       		.byte	0
 853 02d5 0B       		.uleb128 0xb
 854 02d6 77010000 		.4byte	.LASF32
 855 02da 09       		.byte	0x9
 856 02db 6001     		.2byte	0x160
 857 02dd 20010000 		.4byte	0x120
 858 02e1 08       		.byte	0x8
 859 02e2 0A       		.uleb128 0xa
 860 02e3 63747800 		.ascii	"ctx\000"
 861 02e7 09       		.byte	0x9
 862 02e8 6201     		.2byte	0x162
 863 02ea 1B080000 		.4byte	0x81b
 864 02ee 0C       		.byte	0xc
 865 02ef 0B       		.uleb128 0xb
 866 02f0 6C0C0000 		.4byte	.LASF33
 867 02f4 09       		.byte	0x9
 868 02f5 6501     		.2byte	0x165
 869 02f7 56020000 		.4byte	0x256
 870 02fb 10       		.byte	0x10
 871 02fc 0B       		.uleb128 0xb
 872 02fd CD050000 		.4byte	.LASF34
 873 0301 09       		.byte	0x9
 874 0302 6601     		.2byte	0x166
 875 0304 56020000 		.4byte	0x256
 876 0308 14       		.byte	0x14
 877 0309 0B       		.uleb128 0xb
 878 030a DF070000 		.4byte	.LASF56
 879 030e 09       		.byte	0x9
 880 030f 6901     		.2byte	0x169
 881 0311 56020000 		.4byte	0x256
 882 0315 18       		.byte	0x18
 883 0316 00       		.byte	0
 884 0317 03       		.uleb128 0x3
 885 0318 8E000000 		.4byte	.LASF57
 886 031c 08       		.byte	0x8
 887 031d 51       		.byte	0x51
 888 031e 22030000 		.4byte	0x322
 889 0322 0C       		.uleb128 0xc
 890 0323 04       		.byte	0x4
 891 0324 28030000 		.4byte	0x328
 892 0328 0E       		.uleb128 0xe
 893 0329 33030000 		.4byte	0x333
 894 032d 0F       		.uleb128 0xf
 895 032e 33030000 		.4byte	0x333
 896 0332 00       		.byte	0
 897 0333 10       		.uleb128 0x10
 898 0334 04       		.byte	0x4
ARM GAS  C:\Users\Pearl\AppData\Local\Temp\cc4hQ0L2.s 			page 17


 899 0335 03       		.uleb128 0x3
 900 0336 B0050000 		.4byte	.LASF58
 901 033a 08       		.byte	0x8
 902 033b 56       		.byte	0x56
 903 033c 40030000 		.4byte	0x340
 904 0340 0D       		.uleb128 0xd
 905 0341 A6090000 		.4byte	.LASF59
 906 0345 14       		.byte	0x14
 907 0346 09       		.byte	0x9
 908 0347 3901     		.2byte	0x139
 909 0349 8F030000 		.4byte	0x38f
 910 034d 0B       		.uleb128 0xb
 911 034e 480D0000 		.4byte	.LASF50
 912 0352 09       		.byte	0x9
 913 0353 3A01     		.2byte	0x13a
 914 0355 9C090000 		.4byte	0x99c
 915 0359 00       		.byte	0
 916 035a 0B       		.uleb128 0xb
 917 035b 5E0D0000 		.4byte	.LASF53
 918 035f 09       		.byte	0x9
 919 0360 3B01     		.2byte	0x13b
 920 0362 9C090000 		.4byte	0x99c
 921 0366 04       		.byte	0x4
 922 0367 0B       		.uleb128 0xb
 923 0368 1F0A0000 		.4byte	.LASF60
 924 036c 09       		.byte	0x9
 925 036d 3C01     		.2byte	0x13c
 926 036f 5A040000 		.4byte	0x45a
 927 0373 08       		.byte	0x8
 928 0374 0B       		.uleb128 0xb
 929 0375 7D0B0000 		.4byte	.LASF61
 930 0379 09       		.byte	0x9
 931 037a 3D01     		.2byte	0x13d
 932 037c 17030000 		.4byte	0x317
 933 0380 0C       		.byte	0xc
 934 0381 0A       		.uleb128 0xa
 935 0382 70617200 		.ascii	"par\000"
 936 0386 09       		.byte	0x9
 937 0387 3F01     		.2byte	0x13f
 938 0389 33030000 		.4byte	0x333
 939 038d 10       		.byte	0x10
 940 038e 00       		.byte	0
 941 038f 03       		.uleb128 0x3
 942 0390 48050000 		.4byte	.LASF62
 943 0394 08       		.byte	0x8
 944 0395 5B       		.byte	0x5b
 945 0396 9A030000 		.4byte	0x39a
 946 039a 0D       		.uleb128 0xd
 947 039b B4000000 		.4byte	.LASF63
 948 039f 10       		.byte	0x10
 949 03a0 09       		.byte	0x9
 950 03a1 4901     		.2byte	0x149
 951 03a3 DC030000 		.4byte	0x3dc
 952 03a7 0B       		.uleb128 0xb
 953 03a8 480D0000 		.4byte	.LASF50
 954 03ac 09       		.byte	0x9
 955 03ad 4A01     		.2byte	0x14a
ARM GAS  C:\Users\Pearl\AppData\Local\Temp\cc4hQ0L2.s 			page 18


 956 03af 9C090000 		.4byte	0x99c
 957 03b3 00       		.byte	0
 958 03b4 0B       		.uleb128 0xb
 959 03b5 5E0D0000 		.4byte	.LASF53
 960 03b9 09       		.byte	0x9
 961 03ba 4C01     		.2byte	0x14c
 962 03bc 9C090000 		.4byte	0x99c
 963 03c0 04       		.byte	0x4
 964 03c1 0B       		.uleb128 0xb
 965 03c2 1F0A0000 		.4byte	.LASF60
 966 03c6 09       		.byte	0x9
 967 03c7 4E01     		.2byte	0x14e
 968 03c9 5A040000 		.4byte	0x45a
 969 03cd 08       		.byte	0x8
 970 03ce 0B       		.uleb128 0xb
 971 03cf 43030000 		.4byte	.LASF64
 972 03d3 09       		.byte	0x9
 973 03d4 5601     		.2byte	0x156
 974 03d6 4F040000 		.4byte	0x44f
 975 03da 0C       		.byte	0xc
 976 03db 00       		.byte	0
 977 03dc 03       		.uleb128 0x3
 978 03dd 6E030000 		.4byte	.LASF65
 979 03e1 08       		.byte	0x8
 980 03e2 60       		.byte	0x60
 981 03e3 E7030000 		.4byte	0x3e7
 982 03e7 0D       		.uleb128 0xd
 983 03e8 BC0B0000 		.4byte	.LASF66
 984 03ec 04       		.byte	0x4
 985 03ed 09       		.byte	0x9
 986 03ee 7001     		.2byte	0x170
 987 03f0 02040000 		.4byte	0x402
 988 03f4 0B       		.uleb128 0xb
 989 03f5 64030000 		.4byte	.LASF67
 990 03f9 09       		.byte	0x9
 991 03fa 7801     		.2byte	0x178
 992 03fc 85090000 		.4byte	0x985
 993 0400 00       		.byte	0
 994 0401 00       		.byte	0
 995 0402 03       		.uleb128 0x3
 996 0403 A40C0000 		.4byte	.LASF68
 997 0407 08       		.byte	0x8
 998 0408 65       		.byte	0x65
 999 0409 0D040000 		.4byte	0x40d
 1000 040d 0D       		.uleb128 0xd
 1001 040e 620C0000 		.4byte	.LASF69
 1002 0412 74       		.byte	0x74
 1003 0413 09       		.byte	0x9
 1004 0414 9001     		.2byte	0x190
 1005 0416 4F040000 		.4byte	0x44f
 1006 041a 0B       		.uleb128 0xb
 1007 041b DC0A0000 		.4byte	.LASF70
 1008 041f 09       		.byte	0x9
 1009 0420 9401     		.2byte	0x194
 1010 0422 B0020000 		.4byte	0x2b0
 1011 0426 00       		.byte	0
 1012 0427 0B       		.uleb128 0xb
ARM GAS  C:\Users\Pearl\AppData\Local\Temp\cc4hQ0L2.s 			page 19


 1013 0428 110C0000 		.4byte	.LASF71
 1014 042c 09       		.byte	0x9
 1015 042d 9801     		.2byte	0x198
 1016 042f 8F030000 		.4byte	0x38f
 1017 0433 1C       		.byte	0x1c
 1018 0434 0A       		.uleb128 0xa
 1019 0435 64626700 		.ascii	"dbg\000"
 1020 0439 09       		.byte	0x9
 1021 043a 9C01     		.2byte	0x19c
 1022 043c DC030000 		.4byte	0x3dc
 1023 0440 2C       		.byte	0x2c
 1024 0441 0B       		.uleb128 0xb
 1025 0442 7D0A0000 		.4byte	.LASF72
 1026 0446 09       		.byte	0x9
 1027 0447 A001     		.2byte	0x1a0
 1028 0449 62010000 		.4byte	0x162
 1029 044d 30       		.byte	0x30
 1030 044e 00       		.byte	0
 1031 044f 03       		.uleb128 0x3
 1032 0450 39000000 		.4byte	.LASF73
 1033 0454 0A       		.byte	0xa
 1034 0455 6F       		.byte	0x6f
 1035 0456 C4000000 		.4byte	0xc4
 1036 045a 03       		.uleb128 0x3
 1037 045b 83060000 		.4byte	.LASF74
 1038 045f 0A       		.byte	0xa
 1039 0460 79       		.byte	0x79
 1040 0461 E4000000 		.4byte	0xe4
 1041 0465 03       		.uleb128 0x3
 1042 0466 FF070000 		.4byte	.LASF75
 1043 046a 0A       		.byte	0xa
 1044 046b 96       		.byte	0x96
 1045 046c F4000000 		.4byte	0xf4
 1046 0470 11       		.uleb128 0x11
 1047 0471 E4000000 		.4byte	0xe4
 1048 0475 80040000 		.4byte	0x480
 1049 0479 12       		.uleb128 0x12
 1050 047a 37000000 		.4byte	0x37
 1051 047e 07       		.byte	0x7
 1052 047f 00       		.byte	0
 1053 0480 13       		.uleb128 0x13
 1054 0481 10070000 		.4byte	.LASF76
 1055 0485 0B       		.byte	0xb
 1056 0486 4007     		.2byte	0x740
 1057 0488 DF000000 		.4byte	0xdf
 1058 048c 14       		.uleb128 0x14
 1059 048d 13050000 		.4byte	.LASF77
 1060 0491 0C       		.byte	0xc
 1061 0492 45       		.byte	0x45
 1062 0493 E4000000 		.4byte	0xe4
 1063 0497 11       		.uleb128 0x11
 1064 0498 BF000000 		.4byte	0xbf
 1065 049c A7040000 		.4byte	0x4a7
 1066 04a0 12       		.uleb128 0x12
 1067 04a1 37000000 		.4byte	0x37
 1068 04a5 0F       		.byte	0xf
 1069 04a6 00       		.byte	0
ARM GAS  C:\Users\Pearl\AppData\Local\Temp\cc4hQ0L2.s 			page 20


 1070 04a7 05       		.uleb128 0x5
 1071 04a8 97040000 		.4byte	0x497
 1072 04ac 14       		.uleb128 0x14
 1073 04ad 98090000 		.4byte	.LASF78
 1074 04b1 0C       		.byte	0xc
 1075 04b2 46       		.byte	0x46
 1076 04b3 A7040000 		.4byte	0x4a7
 1077 04b7 11       		.uleb128 0x11
 1078 04b8 BF000000 		.4byte	0xbf
 1079 04bc C7040000 		.4byte	0x4c7
 1080 04c0 12       		.uleb128 0x12
 1081 04c1 37000000 		.4byte	0x37
 1082 04c5 07       		.byte	0x7
 1083 04c6 00       		.byte	0
 1084 04c7 05       		.uleb128 0x5
 1085 04c8 B7040000 		.4byte	0x4b7
 1086 04cc 14       		.uleb128 0x14
 1087 04cd 240B0000 		.4byte	.LASF79
 1088 04d1 0C       		.byte	0xc
 1089 04d2 47       		.byte	0x47
 1090 04d3 C7040000 		.4byte	0x4c7
 1091 04d7 15       		.uleb128 0x15
 1092 04d8 10       		.byte	0x10
 1093 04d9 0D       		.byte	0xd
 1094 04da DD       		.byte	0xdd
 1095 04db 10050000 		.4byte	0x510
 1096 04df 09       		.uleb128 0x9
 1097 04e0 54495200 		.ascii	"TIR\000"
 1098 04e4 0D       		.byte	0xd
 1099 04e5 DF       		.byte	0xdf
 1100 04e6 EF000000 		.4byte	0xef
 1101 04ea 00       		.byte	0
 1102 04eb 08       		.uleb128 0x8
 1103 04ec 7A0D0000 		.4byte	.LASF80
 1104 04f0 0D       		.byte	0xd
 1105 04f1 E0       		.byte	0xe0
 1106 04f2 EF000000 		.4byte	0xef
 1107 04f6 04       		.byte	0x4
 1108 04f7 08       		.uleb128 0x8
 1109 04f8 550A0000 		.4byte	.LASF81
 1110 04fc 0D       		.byte	0xd
 1111 04fd E1       		.byte	0xe1
 1112 04fe EF000000 		.4byte	0xef
 1113 0502 08       		.byte	0x8
 1114 0503 08       		.uleb128 0x8
 1115 0504 D4070000 		.4byte	.LASF82
 1116 0508 0D       		.byte	0xd
 1117 0509 E2       		.byte	0xe2
 1118 050a EF000000 		.4byte	0xef
 1119 050e 0C       		.byte	0xc
 1120 050f 00       		.byte	0
 1121 0510 03       		.uleb128 0x3
 1122 0511 320B0000 		.4byte	.LASF83
 1123 0515 0D       		.byte	0xd
 1124 0516 E3       		.byte	0xe3
 1125 0517 D7040000 		.4byte	0x4d7
 1126 051b 15       		.uleb128 0x15
ARM GAS  C:\Users\Pearl\AppData\Local\Temp\cc4hQ0L2.s 			page 21


 1127 051c 10       		.byte	0x10
 1128 051d 0D       		.byte	0xd
 1129 051e E9       		.byte	0xe9
 1130 051f 54050000 		.4byte	0x554
 1131 0523 09       		.uleb128 0x9
 1132 0524 52495200 		.ascii	"RIR\000"
 1133 0528 0D       		.byte	0xd
 1134 0529 EB       		.byte	0xeb
 1135 052a EF000000 		.4byte	0xef
 1136 052e 00       		.byte	0
 1137 052f 08       		.uleb128 0x8
 1138 0530 590D0000 		.4byte	.LASF84
 1139 0534 0D       		.byte	0xd
 1140 0535 EC       		.byte	0xec
 1141 0536 EF000000 		.4byte	0xef
 1142 053a 04       		.byte	0x4
 1143 053b 08       		.uleb128 0x8
 1144 053c 2D0A0000 		.4byte	.LASF85
 1145 0540 0D       		.byte	0xd
 1146 0541 ED       		.byte	0xed
 1147 0542 EF000000 		.4byte	0xef
 1148 0546 08       		.byte	0x8
 1149 0547 08       		.uleb128 0x8
 1150 0548 CA070000 		.4byte	.LASF86
 1151 054c 0D       		.byte	0xd
 1152 054d EE       		.byte	0xee
 1153 054e EF000000 		.4byte	0xef
 1154 0552 0C       		.byte	0xc
 1155 0553 00       		.byte	0
 1156 0554 03       		.uleb128 0x3
 1157 0555 320A0000 		.4byte	.LASF87
 1158 0559 0D       		.byte	0xd
 1159 055a EF       		.byte	0xef
 1160 055b 1B050000 		.4byte	0x51b
 1161 055f 15       		.uleb128 0x15
 1162 0560 08       		.byte	0x8
 1163 0561 0D       		.byte	0xd
 1164 0562 F5       		.byte	0xf5
 1165 0563 80050000 		.4byte	0x580
 1166 0567 09       		.uleb128 0x9
 1167 0568 46523100 		.ascii	"FR1\000"
 1168 056c 0D       		.byte	0xd
 1169 056d F7       		.byte	0xf7
 1170 056e EF000000 		.4byte	0xef
 1171 0572 00       		.byte	0
 1172 0573 09       		.uleb128 0x9
 1173 0574 46523200 		.ascii	"FR2\000"
 1174 0578 0D       		.byte	0xd
 1175 0579 F8       		.byte	0xf8
 1176 057a EF000000 		.4byte	0xef
 1177 057e 04       		.byte	0x4
 1178 057f 00       		.byte	0
 1179 0580 03       		.uleb128 0x3
 1180 0581 B5020000 		.4byte	.LASF88
 1181 0585 0D       		.byte	0xd
 1182 0586 F9       		.byte	0xf9
 1183 0587 5F050000 		.4byte	0x55f
ARM GAS  C:\Users\Pearl\AppData\Local\Temp\cc4hQ0L2.s 			page 22


 1184 058b 16       		.uleb128 0x16
 1185 058c B002     		.2byte	0x2b0
 1186 058e 0D       		.byte	0xd
 1187 058f FF       		.byte	0xff
 1188 0590 C0060000 		.4byte	0x6c0
 1189 0594 0A       		.uleb128 0xa
 1190 0595 4D435200 		.ascii	"MCR\000"
 1191 0599 0D       		.byte	0xd
 1192 059a 0101     		.2byte	0x101
 1193 059c EF000000 		.4byte	0xef
 1194 05a0 00       		.byte	0
 1195 05a1 0A       		.uleb128 0xa
 1196 05a2 4D535200 		.ascii	"MSR\000"
 1197 05a6 0D       		.byte	0xd
 1198 05a7 0201     		.2byte	0x102
 1199 05a9 EF000000 		.4byte	0xef
 1200 05ad 04       		.byte	0x4
 1201 05ae 0A       		.uleb128 0xa
 1202 05af 54535200 		.ascii	"TSR\000"
 1203 05b3 0D       		.byte	0xd
 1204 05b4 0301     		.2byte	0x103
 1205 05b6 EF000000 		.4byte	0xef
 1206 05ba 08       		.byte	0x8
 1207 05bb 0B       		.uleb128 0xb
 1208 05bc 7F020000 		.4byte	.LASF89
 1209 05c0 0D       		.byte	0xd
 1210 05c1 0401     		.2byte	0x104
 1211 05c3 EF000000 		.4byte	0xef
 1212 05c7 0C       		.byte	0xc
 1213 05c8 0B       		.uleb128 0xb
 1214 05c9 5F030000 		.4byte	.LASF90
 1215 05cd 0D       		.byte	0xd
 1216 05ce 0501     		.2byte	0x105
 1217 05d0 EF000000 		.4byte	0xef
 1218 05d4 10       		.byte	0x10
 1219 05d5 0A       		.uleb128 0xa
 1220 05d6 49455200 		.ascii	"IER\000"
 1221 05da 0D       		.byte	0xd
 1222 05db 0601     		.2byte	0x106
 1223 05dd EF000000 		.4byte	0xef
 1224 05e1 14       		.byte	0x14
 1225 05e2 0A       		.uleb128 0xa
 1226 05e3 45535200 		.ascii	"ESR\000"
 1227 05e7 0D       		.byte	0xd
 1228 05e8 0701     		.2byte	0x107
 1229 05ea EF000000 		.4byte	0xef
 1230 05ee 18       		.byte	0x18
 1231 05ef 0A       		.uleb128 0xa
 1232 05f0 42545200 		.ascii	"BTR\000"
 1233 05f4 0D       		.byte	0xd
 1234 05f5 0801     		.2byte	0x108
 1235 05f7 EF000000 		.4byte	0xef
 1236 05fb 1C       		.byte	0x1c
 1237 05fc 0B       		.uleb128 0xb
 1238 05fd 03030000 		.4byte	.LASF91
 1239 0601 0D       		.byte	0xd
 1240 0602 0901     		.2byte	0x109
ARM GAS  C:\Users\Pearl\AppData\Local\Temp\cc4hQ0L2.s 			page 23


 1241 0604 C0060000 		.4byte	0x6c0
 1242 0608 20       		.byte	0x20
 1243 0609 17       		.uleb128 0x17
 1244 060a BA0C0000 		.4byte	.LASF92
 1245 060e 0D       		.byte	0xd
 1246 060f 0A01     		.2byte	0x10a
 1247 0611 D0060000 		.4byte	0x6d0
 1248 0615 8001     		.2byte	0x180
 1249 0617 17       		.uleb128 0x17
 1250 0618 D0020000 		.4byte	.LASF93
 1251 061c 0D       		.byte	0xd
 1252 061d 0B01     		.2byte	0x10b
 1253 061f E0060000 		.4byte	0x6e0
 1254 0623 B001     		.2byte	0x1b0
 1255 0625 17       		.uleb128 0x17
 1256 0626 0D030000 		.4byte	.LASF94
 1257 062a 0D       		.byte	0xd
 1258 062b 0C01     		.2byte	0x10c
 1259 062d F0060000 		.4byte	0x6f0
 1260 0631 D001     		.2byte	0x1d0
 1261 0633 18       		.uleb128 0x18
 1262 0634 464D5200 		.ascii	"FMR\000"
 1263 0638 0D       		.byte	0xd
 1264 0639 0D01     		.2byte	0x10d
 1265 063b EF000000 		.4byte	0xef
 1266 063f 0002     		.2byte	0x200
 1267 0641 17       		.uleb128 0x17
 1268 0642 C5070000 		.4byte	.LASF95
 1269 0646 0D       		.byte	0xd
 1270 0647 0E01     		.2byte	0x10e
 1271 0649 EF000000 		.4byte	0xef
 1272 064d 0402     		.2byte	0x204
 1273 064f 17       		.uleb128 0x17
 1274 0650 90030000 		.4byte	.LASF96
 1275 0654 0D       		.byte	0xd
 1276 0655 0F01     		.2byte	0x10f
 1277 0657 E4000000 		.4byte	0xe4
 1278 065b 0802     		.2byte	0x208
 1279 065d 17       		.uleb128 0x17
 1280 065e 070B0000 		.4byte	.LASF97
 1281 0662 0D       		.byte	0xd
 1282 0663 1001     		.2byte	0x110
 1283 0665 EF000000 		.4byte	0xef
 1284 0669 0C02     		.2byte	0x20c
 1285 066b 17       		.uleb128 0x17
 1286 066c 25030000 		.4byte	.LASF98
 1287 0670 0D       		.byte	0xd
 1288 0671 1101     		.2byte	0x111
 1289 0673 E4000000 		.4byte	0xe4
 1290 0677 1002     		.2byte	0x210
 1291 0679 17       		.uleb128 0x17
 1292 067a 990B0000 		.4byte	.LASF99
 1293 067e 0D       		.byte	0xd
 1294 067f 1201     		.2byte	0x112
 1295 0681 EF000000 		.4byte	0xef
 1296 0685 1402     		.2byte	0x214
 1297 0687 17       		.uleb128 0x17
ARM GAS  C:\Users\Pearl\AppData\Local\Temp\cc4hQ0L2.s 			page 24


 1298 0688 2F030000 		.4byte	.LASF100
 1299 068c 0D       		.byte	0xd
 1300 068d 1301     		.2byte	0x113
 1301 068f E4000000 		.4byte	0xe4
 1302 0693 1802     		.2byte	0x218
 1303 0695 17       		.uleb128 0x17
 1304 0696 F1010000 		.4byte	.LASF101
 1305 069a 0D       		.byte	0xd
 1306 069b 1401     		.2byte	0x114
 1307 069d EF000000 		.4byte	0xef
 1308 06a1 1C02     		.2byte	0x21c
 1309 06a3 17       		.uleb128 0x17
 1310 06a4 39030000 		.4byte	.LASF102
 1311 06a8 0D       		.byte	0xd
 1312 06a9 1501     		.2byte	0x115
 1313 06ab 70040000 		.4byte	0x470
 1314 06af 2002     		.2byte	0x220
 1315 06b1 17       		.uleb128 0x17
 1316 06b2 E0080000 		.4byte	.LASF103
 1317 06b6 0D       		.byte	0xd
 1318 06b7 1601     		.2byte	0x116
 1319 06b9 00070000 		.4byte	0x700
 1320 06bd 4002     		.2byte	0x240
 1321 06bf 00       		.byte	0
 1322 06c0 11       		.uleb128 0x11
 1323 06c1 E4000000 		.4byte	0xe4
 1324 06c5 D0060000 		.4byte	0x6d0
 1325 06c9 12       		.uleb128 0x12
 1326 06ca 37000000 		.4byte	0x37
 1327 06ce 57       		.byte	0x57
 1328 06cf 00       		.byte	0
 1329 06d0 11       		.uleb128 0x11
 1330 06d1 10050000 		.4byte	0x510
 1331 06d5 E0060000 		.4byte	0x6e0
 1332 06d9 12       		.uleb128 0x12
 1333 06da 37000000 		.4byte	0x37
 1334 06de 02       		.byte	0x2
 1335 06df 00       		.byte	0
 1336 06e0 11       		.uleb128 0x11
 1337 06e1 54050000 		.4byte	0x554
 1338 06e5 F0060000 		.4byte	0x6f0
 1339 06e9 12       		.uleb128 0x12
 1340 06ea 37000000 		.4byte	0x37
 1341 06ee 01       		.byte	0x1
 1342 06ef 00       		.byte	0
 1343 06f0 11       		.uleb128 0x11
 1344 06f1 E4000000 		.4byte	0xe4
 1345 06f5 00070000 		.4byte	0x700
 1346 06f9 12       		.uleb128 0x12
 1347 06fa 37000000 		.4byte	0x37
 1348 06fe 0B       		.byte	0xb
 1349 06ff 00       		.byte	0
 1350 0700 11       		.uleb128 0x11
 1351 0701 80050000 		.4byte	0x580
 1352 0705 10070000 		.4byte	0x710
 1353 0709 12       		.uleb128 0x12
 1354 070a 37000000 		.4byte	0x37
ARM GAS  C:\Users\Pearl\AppData\Local\Temp\cc4hQ0L2.s 			page 25


 1355 070e 0D       		.byte	0xd
 1356 070f 00       		.byte	0
 1357 0710 19       		.uleb128 0x19
 1358 0711 F3070000 		.4byte	.LASF104
 1359 0715 0D       		.byte	0xd
 1360 0716 1701     		.2byte	0x117
 1361 0718 8B050000 		.4byte	0x58b
 1362 071c 1A       		.uleb128 0x1a
 1363 071d 10       		.byte	0x10
 1364 071e 0D       		.byte	0xd
 1365 071f 3501     		.2byte	0x135
 1366 0721 5A070000 		.4byte	0x75a
 1367 0725 0A       		.uleb128 0xa
 1368 0726 43435200 		.ascii	"CCR\000"
 1369 072a 0D       		.byte	0xd
 1370 072b 3701     		.2byte	0x137
 1371 072d EF000000 		.4byte	0xef
 1372 0731 00       		.byte	0
 1373 0732 0B       		.uleb128 0xb
 1374 0733 48010000 		.4byte	.LASF105
 1375 0737 0D       		.byte	0xd
 1376 0738 3801     		.2byte	0x138
 1377 073a EF000000 		.4byte	0xef
 1378 073e 04       		.byte	0x4
 1379 073f 0B       		.uleb128 0xb
 1380 0740 61020000 		.4byte	.LASF106
 1381 0744 0D       		.byte	0xd
 1382 0745 3901     		.2byte	0x139
 1383 0747 EF000000 		.4byte	0xef
 1384 074b 08       		.byte	0x8
 1385 074c 0B       		.uleb128 0xb
 1386 074d CF070000 		.4byte	.LASF107
 1387 0751 0D       		.byte	0xd
 1388 0752 3A01     		.2byte	0x13a
 1389 0754 EF000000 		.4byte	0xef
 1390 0758 0C       		.byte	0xc
 1391 0759 00       		.byte	0
 1392 075a 19       		.uleb128 0x19
 1393 075b 84090000 		.4byte	.LASF108
 1394 075f 0D       		.byte	0xd
 1395 0760 3B01     		.2byte	0x13b
 1396 0762 1C070000 		.4byte	0x71c
 1397 0766 1A       		.uleb128 0x1a
 1398 0767 08       		.byte	0x8
 1399 0768 0D       		.byte	0xd
 1400 0769 3D01     		.2byte	0x13d
 1401 076b 8A070000 		.4byte	0x78a
 1402 076f 0A       		.uleb128 0xa
 1403 0770 49535200 		.ascii	"ISR\000"
 1404 0774 0D       		.byte	0xd
 1405 0775 3F01     		.2byte	0x13f
 1406 0777 EF000000 		.4byte	0xef
 1407 077b 00       		.byte	0
 1408 077c 0B       		.uleb128 0xb
 1409 077d BA030000 		.4byte	.LASF109
 1410 0781 0D       		.byte	0xd
 1411 0782 4001     		.2byte	0x140
ARM GAS  C:\Users\Pearl\AppData\Local\Temp\cc4hQ0L2.s 			page 26


 1412 0784 EF000000 		.4byte	0xef
 1413 0788 04       		.byte	0x4
 1414 0789 00       		.byte	0
 1415 078a 19       		.uleb128 0x19
 1416 078b 53030000 		.4byte	.LASF110
 1417 078f 0D       		.byte	0xd
 1418 0790 4101     		.2byte	0x141
 1419 0792 66070000 		.4byte	0x766
 1420 0796 1A       		.uleb128 0x1a
 1421 0797 1C       		.byte	0x1c
 1422 0798 0D       		.byte	0xd
 1423 0799 2902     		.2byte	0x229
 1424 079b F9070000 		.4byte	0x7f9
 1425 079f 0A       		.uleb128 0xa
 1426 07a0 535200   		.ascii	"SR\000"
 1427 07a3 0D       		.byte	0xd
 1428 07a4 2B02     		.2byte	0x22b
 1429 07a6 EF000000 		.4byte	0xef
 1430 07aa 00       		.byte	0
 1431 07ab 0A       		.uleb128 0xa
 1432 07ac 445200   		.ascii	"DR\000"
 1433 07af 0D       		.byte	0xd
 1434 07b0 2C02     		.2byte	0x22c
 1435 07b2 EF000000 		.4byte	0xef
 1436 07b6 04       		.byte	0x4
 1437 07b7 0A       		.uleb128 0xa
 1438 07b8 42525200 		.ascii	"BRR\000"
 1439 07bc 0D       		.byte	0xd
 1440 07bd 2D02     		.2byte	0x22d
 1441 07bf EF000000 		.4byte	0xef
 1442 07c3 08       		.byte	0x8
 1443 07c4 0A       		.uleb128 0xa
 1444 07c5 43523100 		.ascii	"CR1\000"
 1445 07c9 0D       		.byte	0xd
 1446 07ca 2E02     		.2byte	0x22e
 1447 07cc EF000000 		.4byte	0xef
 1448 07d0 0C       		.byte	0xc
 1449 07d1 0A       		.uleb128 0xa
 1450 07d2 43523200 		.ascii	"CR2\000"
 1451 07d6 0D       		.byte	0xd
 1452 07d7 2F02     		.2byte	0x22f
 1453 07d9 EF000000 		.4byte	0xef
 1454 07dd 10       		.byte	0x10
 1455 07de 0A       		.uleb128 0xa
 1456 07df 43523300 		.ascii	"CR3\000"
 1457 07e3 0D       		.byte	0xd
 1458 07e4 3002     		.2byte	0x230
 1459 07e6 EF000000 		.4byte	0xef
 1460 07ea 14       		.byte	0x14
 1461 07eb 0B       		.uleb128 0xb
 1462 07ec F6060000 		.4byte	.LASF111
 1463 07f0 0D       		.byte	0xd
 1464 07f1 3102     		.2byte	0x231
 1465 07f3 EF000000 		.4byte	0xef
 1466 07f7 18       		.byte	0x18
 1467 07f8 00       		.byte	0
 1468 07f9 19       		.uleb128 0x19
ARM GAS  C:\Users\Pearl\AppData\Local\Temp\cc4hQ0L2.s 			page 27


 1469 07fa 18040000 		.4byte	.LASF112
 1470 07fe 0D       		.byte	0xd
 1471 07ff 3202     		.2byte	0x232
 1472 0801 96070000 		.4byte	0x796
 1473 0805 03       		.uleb128 0x3
 1474 0806 18020000 		.4byte	.LASF113
 1475 080a 0E       		.byte	0xe
 1476 080b 65       		.byte	0x65
 1477 080c 33030000 		.4byte	0x333
 1478 0810 03       		.uleb128 0x3
 1479 0811 0D040000 		.4byte	.LASF114
 1480 0815 0E       		.byte	0xe
 1481 0816 6D       		.byte	0x6d
 1482 0817 F4000000 		.4byte	0xf4
 1483 081b 07       		.uleb128 0x7
 1484 081c 300C0000 		.4byte	.LASF115
 1485 0820 04       		.byte	0x4
 1486 0821 0E       		.byte	0xe
 1487 0822 89       		.byte	0x89
 1488 0823 33080000 		.4byte	0x833
 1489 0827 09       		.uleb128 0x9
 1490 0828 737000   		.ascii	"sp\000"
 1491 082b 0E       		.byte	0xe
 1492 082c 8A       		.byte	0x8a
 1493 082d AF080000 		.4byte	0x8af
 1494 0831 00       		.byte	0
 1495 0832 00       		.byte	0
 1496 0833 0D       		.uleb128 0xd
 1497 0834 39090000 		.4byte	.LASF116
 1498 0838 24       		.byte	0x24
 1499 0839 0F       		.byte	0xf
 1500 083a 5901     		.2byte	0x159
 1501 083c AF080000 		.4byte	0x8af
 1502 0840 0A       		.uleb128 0xa
 1503 0841 723400   		.ascii	"r4\000"
 1504 0844 0F       		.byte	0xf
 1505 0845 6C01     		.2byte	0x16c
 1506 0847 05080000 		.4byte	0x805
 1507 084b 00       		.byte	0
 1508 084c 0A       		.uleb128 0xa
 1509 084d 723500   		.ascii	"r5\000"
 1510 0850 0F       		.byte	0xf
 1511 0851 6D01     		.2byte	0x16d
 1512 0853 05080000 		.4byte	0x805
 1513 0857 04       		.byte	0x4
 1514 0858 0A       		.uleb128 0xa
 1515 0859 723600   		.ascii	"r6\000"
 1516 085c 0F       		.byte	0xf
 1517 085d 6E01     		.2byte	0x16e
 1518 085f 05080000 		.4byte	0x805
 1519 0863 08       		.byte	0x8
 1520 0864 0A       		.uleb128 0xa
 1521 0865 723700   		.ascii	"r7\000"
 1522 0868 0F       		.byte	0xf
 1523 0869 6F01     		.2byte	0x16f
 1524 086b 05080000 		.4byte	0x805
 1525 086f 0C       		.byte	0xc
ARM GAS  C:\Users\Pearl\AppData\Local\Temp\cc4hQ0L2.s 			page 28


 1526 0870 0A       		.uleb128 0xa
 1527 0871 723800   		.ascii	"r8\000"
 1528 0874 0F       		.byte	0xf
 1529 0875 7001     		.2byte	0x170
 1530 0877 05080000 		.4byte	0x805
 1531 087b 10       		.byte	0x10
 1532 087c 0A       		.uleb128 0xa
 1533 087d 723900   		.ascii	"r9\000"
 1534 0880 0F       		.byte	0xf
 1535 0881 7101     		.2byte	0x171
 1536 0883 05080000 		.4byte	0x805
 1537 0887 14       		.byte	0x14
 1538 0888 0A       		.uleb128 0xa
 1539 0889 72313000 		.ascii	"r10\000"
 1540 088d 0F       		.byte	0xf
 1541 088e 7201     		.2byte	0x172
 1542 0890 05080000 		.4byte	0x805
 1543 0894 18       		.byte	0x18
 1544 0895 0A       		.uleb128 0xa
 1545 0896 72313100 		.ascii	"r11\000"
 1546 089a 0F       		.byte	0xf
 1547 089b 7301     		.2byte	0x173
 1548 089d 05080000 		.4byte	0x805
 1549 08a1 1C       		.byte	0x1c
 1550 08a2 0A       		.uleb128 0xa
 1551 08a3 6C7200   		.ascii	"lr\000"
 1552 08a6 0F       		.byte	0xf
 1553 08a7 7401     		.2byte	0x174
 1554 08a9 05080000 		.4byte	0x805
 1555 08ad 20       		.byte	0x20
 1556 08ae 00       		.byte	0
 1557 08af 0C       		.uleb128 0xc
 1558 08b0 04       		.byte	0x4
 1559 08b1 33080000 		.4byte	0x833
 1560 08b5 1B       		.uleb128 0x1b
 1561 08b6 04       		.byte	0x4
 1562 08b7 09       		.byte	0x9
 1563 08b8 C6       		.byte	0xc6
 1564 08b9 17090000 		.4byte	0x917
 1565 08bd 1C       		.uleb128 0x1c
 1566 08be 8A0C0000 		.4byte	.LASF117
 1567 08c2 09       		.byte	0x9
 1568 08c3 CD       		.byte	0xcd
 1569 08c4 2B010000 		.4byte	0x12b
 1570 08c8 1C       		.uleb128 0x1c
 1571 08c9 8F010000 		.4byte	.LASF118
 1572 08cd 09       		.byte	0x9
 1573 08ce D4       		.byte	0xd4
 1574 08cf 2B010000 		.4byte	0x12b
 1575 08d3 1C       		.uleb128 0x1c
 1576 08d4 DA030000 		.4byte	.LASF119
 1577 08d8 09       		.byte	0x9
 1578 08d9 DB       		.byte	0xdb
 1579 08da 33030000 		.4byte	0x333
 1580 08de 1C       		.uleb128 0x1c
 1581 08df EA020000 		.4byte	.LASF120
 1582 08e3 09       		.byte	0x9
ARM GAS  C:\Users\Pearl\AppData\Local\Temp\cc4hQ0L2.s 			page 29


 1583 08e4 E2       		.byte	0xe2
 1584 08e5 17090000 		.4byte	0x917
 1585 08e9 1C       		.uleb128 0x1c
 1586 08ea 31090000 		.4byte	.LASF121
 1587 08ee 09       		.byte	0x9
 1588 08ef E7       		.byte	0xe7
 1589 08f0 2B010000 		.4byte	0x12b
 1590 08f4 1C       		.uleb128 0x1c
 1591 08f5 32000000 		.4byte	.LASF122
 1592 08f9 09       		.byte	0x9
 1593 08fa F0       		.byte	0xf0
 1594 08fb 42090000 		.4byte	0x942
 1595 08ff 1C       		.uleb128 0x1c
 1596 0900 90040000 		.4byte	.LASF123
 1597 0904 09       		.byte	0x9
 1598 0905 F9       		.byte	0xf9
 1599 0906 79090000 		.4byte	0x979
 1600 090a 1D       		.uleb128 0x1d
 1601 090b 9A020000 		.4byte	.LASF124
 1602 090f 09       		.byte	0x9
 1603 0910 0101     		.2byte	0x101
 1604 0912 36010000 		.4byte	0x136
 1605 0916 00       		.byte	0
 1606 0917 0C       		.uleb128 0xc
 1607 0918 04       		.byte	0x4
 1608 0919 4B020000 		.4byte	0x24b
 1609 091d 07       		.uleb128 0x7
 1610 091e 23050000 		.4byte	.LASF125
 1611 0922 0C       		.byte	0xc
 1612 0923 10       		.byte	0x10
 1613 0924 34       		.byte	0x34
 1614 0925 42090000 		.4byte	0x942
 1615 0929 08       		.uleb128 0x8
 1616 092a 4F0A0000 		.4byte	.LASF31
 1617 092e 10       		.byte	0x10
 1618 092f 35       		.byte	0x35
 1619 0930 80020000 		.4byte	0x280
 1620 0934 00       		.byte	0
 1621 0935 09       		.uleb128 0x9
 1622 0936 636E7400 		.ascii	"cnt\000"
 1623 093a 10       		.byte	0x10
 1624 093b 37       		.byte	0x37
 1625 093c 4C010000 		.4byte	0x14c
 1626 0940 08       		.byte	0x8
 1627 0941 00       		.byte	0
 1628 0942 0C       		.uleb128 0xc
 1629 0943 04       		.byte	0x4
 1630 0944 1D090000 		.4byte	0x91d
 1631 0948 07       		.uleb128 0x7
 1632 0949 820B0000 		.4byte	.LASF126
 1633 094d 10       		.byte	0x10
 1634 094e 11       		.byte	0x11
 1635 094f 39       		.byte	0x39
 1636 0950 79090000 		.4byte	0x979
 1637 0954 08       		.uleb128 0x8
 1638 0955 4F0A0000 		.4byte	.LASF31
 1639 0959 11       		.byte	0x11
ARM GAS  C:\Users\Pearl\AppData\Local\Temp\cc4hQ0L2.s 			page 30


 1640 095a 3A       		.byte	0x3a
 1641 095b 80020000 		.4byte	0x280
 1642 095f 00       		.byte	0
 1643 0960 08       		.uleb128 0x8
 1644 0961 4F000000 		.4byte	.LASF127
 1645 0965 11       		.byte	0x11
 1646 0966 3C       		.byte	0x3c
 1647 0967 56020000 		.4byte	0x256
 1648 096b 08       		.byte	0x8
 1649 096c 08       		.uleb128 0x8
 1650 096d 480D0000 		.4byte	.LASF50
 1651 0971 11       		.byte	0x11
 1652 0972 3E       		.byte	0x3e
 1653 0973 DB0A0000 		.4byte	0xadb
 1654 0977 0C       		.byte	0xc
 1655 0978 00       		.byte	0
 1656 0979 0C       		.uleb128 0xc
 1657 097a 04       		.byte	0x4
 1658 097b 48090000 		.4byte	0x948
 1659 097f 0C       		.uleb128 0xc
 1660 0980 04       		.byte	0x4
 1661 0981 91090000 		.4byte	0x991
 1662 0985 06       		.uleb128 0x6
 1663 0986 7F090000 		.4byte	0x97f
 1664 098a 04       		.uleb128 0x4
 1665 098b 01       		.byte	0x1
 1666 098c 08       		.byte	0x8
 1667 098d A5030000 		.4byte	.LASF128
 1668 0991 05       		.uleb128 0x5
 1669 0992 8A090000 		.4byte	0x98a
 1670 0996 0C       		.uleb128 0xc
 1671 0997 04       		.byte	0x4
 1672 0998 10080000 		.4byte	0x810
 1673 099c 0C       		.uleb128 0xc
 1674 099d 04       		.byte	0x4
 1675 099e 35030000 		.4byte	0x335
 1676 09a2 1E       		.uleb128 0x1e
 1677 09a3 636800   		.ascii	"ch\000"
 1678 09a6 09       		.byte	0x9
 1679 09a7 C701     		.2byte	0x1c7
 1680 09a9 02040000 		.4byte	0x402
 1681 09ad 11       		.uleb128 0x11
 1682 09ae 10080000 		.4byte	0x810
 1683 09b2 B8090000 		.4byte	0x9b8
 1684 09b6 1F       		.uleb128 0x1f
 1685 09b7 00       		.byte	0
 1686 09b8 13       		.uleb128 0x13
 1687 09b9 5E050000 		.4byte	.LASF129
 1688 09bd 12       		.byte	0x12
 1689 09be 1701     		.2byte	0x117
 1690 09c0 AD090000 		.4byte	0x9ad
 1691 09c4 15       		.uleb128 0x15
 1692 09c5 16       		.byte	0x16
 1693 09c6 02       		.byte	0x2
 1694 09c7 34       		.byte	0x34
 1695 09c8 A50A0000 		.4byte	0xaa5
 1696 09cc 08       		.uleb128 0x8
ARM GAS  C:\Users\Pearl\AppData\Local\Temp\cc4hQ0L2.s 			page 31


 1697 09cd 6F0D0000 		.4byte	.LASF130
 1698 09d1 02       		.byte	0x2
 1699 09d2 35       		.byte	0x35
 1700 09d3 A50A0000 		.4byte	0xaa5
 1701 09d7 00       		.byte	0
 1702 09d8 08       		.uleb128 0x8
 1703 09d9 DB010000 		.4byte	.LASF131
 1704 09dd 02       		.byte	0x2
 1705 09de 36       		.byte	0x36
 1706 09df B4000000 		.4byte	0xb4
 1707 09e3 04       		.byte	0x4
 1708 09e4 08       		.uleb128 0x8
 1709 09e5 B7090000 		.4byte	.LASF132
 1710 09e9 02       		.byte	0x2
 1711 09ea 37       		.byte	0x37
 1712 09eb B4000000 		.4byte	0xb4
 1713 09ef 05       		.byte	0x5
 1714 09f0 08       		.uleb128 0x8
 1715 09f1 880A0000 		.4byte	.LASF133
 1716 09f5 02       		.byte	0x2
 1717 09f6 38       		.byte	0x38
 1718 09f7 C4000000 		.4byte	0xc4
 1719 09fb 06       		.byte	0x6
 1720 09fc 08       		.uleb128 0x8
 1721 09fd 3D040000 		.4byte	.LASF134
 1722 0a01 02       		.byte	0x2
 1723 0a02 39       		.byte	0x39
 1724 0a03 B4000000 		.4byte	0xb4
 1725 0a07 08       		.byte	0x8
 1726 0a08 08       		.uleb128 0x8
 1727 0a09 C50C0000 		.4byte	.LASF135
 1728 0a0d 02       		.byte	0x2
 1729 0a0e 3A       		.byte	0x3a
 1730 0a0f B4000000 		.4byte	0xb4
 1731 0a13 09       		.byte	0x9
 1732 0a14 08       		.uleb128 0x8
 1733 0a15 F3040000 		.4byte	.LASF136
 1734 0a19 02       		.byte	0x2
 1735 0a1a 3B       		.byte	0x3b
 1736 0a1b B4000000 		.4byte	0xb4
 1737 0a1f 0A       		.byte	0xa
 1738 0a20 08       		.uleb128 0x8
 1739 0a21 22000000 		.4byte	.LASF137
 1740 0a25 02       		.byte	0x2
 1741 0a26 3C       		.byte	0x3c
 1742 0a27 B4000000 		.4byte	0xb4
 1743 0a2b 0B       		.byte	0xb
 1744 0a2c 08       		.uleb128 0x8
 1745 0a2d 00000000 		.4byte	.LASF138
 1746 0a31 02       		.byte	0x2
 1747 0a32 3D       		.byte	0x3d
 1748 0a33 B4000000 		.4byte	0xb4
 1749 0a37 0C       		.byte	0xc
 1750 0a38 08       		.uleb128 0x8
 1751 0a39 8C070000 		.4byte	.LASF139
 1752 0a3d 02       		.byte	0x2
 1753 0a3e 3E       		.byte	0x3e
ARM GAS  C:\Users\Pearl\AppData\Local\Temp\cc4hQ0L2.s 			page 32


 1754 0a3f B4000000 		.4byte	0xb4
 1755 0a43 0D       		.byte	0xd
 1756 0a44 08       		.uleb128 0x8
 1757 0a45 6D010000 		.4byte	.LASF140
 1758 0a49 02       		.byte	0x2
 1759 0a4a 3F       		.byte	0x3f
 1760 0a4b B4000000 		.4byte	0xb4
 1761 0a4f 0E       		.byte	0xe
 1762 0a50 08       		.uleb128 0x8
 1763 0a51 F2090000 		.4byte	.LASF141
 1764 0a55 02       		.byte	0x2
 1765 0a56 40       		.byte	0x40
 1766 0a57 B4000000 		.4byte	0xb4
 1767 0a5b 0F       		.byte	0xf
 1768 0a5c 08       		.uleb128 0x8
 1769 0a5d ED050000 		.4byte	.LASF142
 1770 0a61 02       		.byte	0x2
 1771 0a62 41       		.byte	0x41
 1772 0a63 B4000000 		.4byte	0xb4
 1773 0a67 10       		.byte	0x10
 1774 0a68 08       		.uleb128 0x8
 1775 0a69 D7040000 		.4byte	.LASF143
 1776 0a6d 02       		.byte	0x2
 1777 0a6e 42       		.byte	0x42
 1778 0a6f B4000000 		.4byte	0xb4
 1779 0a73 11       		.byte	0x11
 1780 0a74 08       		.uleb128 0x8
 1781 0a75 050D0000 		.4byte	.LASF144
 1782 0a79 02       		.byte	0x2
 1783 0a7a 43       		.byte	0x43
 1784 0a7b B4000000 		.4byte	0xb4
 1785 0a7f 12       		.byte	0x12
 1786 0a80 08       		.uleb128 0x8
 1787 0a81 F5030000 		.4byte	.LASF145
 1788 0a85 02       		.byte	0x2
 1789 0a86 44       		.byte	0x44
 1790 0a87 B4000000 		.4byte	0xb4
 1791 0a8b 13       		.byte	0x13
 1792 0a8c 08       		.uleb128 0x8
 1793 0a8d 43000000 		.4byte	.LASF146
 1794 0a91 02       		.byte	0x2
 1795 0a92 45       		.byte	0x45
 1796 0a93 B4000000 		.4byte	0xb4
 1797 0a97 14       		.byte	0x14
 1798 0a98 08       		.uleb128 0x8
 1799 0a99 5A040000 		.4byte	.LASF147
 1800 0a9d 02       		.byte	0x2
 1801 0a9e 46       		.byte	0x46
 1802 0a9f B4000000 		.4byte	0xb4
 1803 0aa3 15       		.byte	0x15
 1804 0aa4 00       		.byte	0
 1805 0aa5 11       		.uleb128 0x11
 1806 0aa6 8A090000 		.4byte	0x98a
 1807 0aaa B50A0000 		.4byte	0xab5
 1808 0aae 12       		.uleb128 0x12
 1809 0aaf 37000000 		.4byte	0x37
 1810 0ab3 03       		.byte	0x3
ARM GAS  C:\Users\Pearl\AppData\Local\Temp\cc4hQ0L2.s 			page 33


 1811 0ab4 00       		.byte	0
 1812 0ab5 03       		.uleb128 0x3
 1813 0ab6 B00C0000 		.4byte	.LASF148
 1814 0aba 02       		.byte	0x2
 1815 0abb 47       		.byte	0x47
 1816 0abc C4090000 		.4byte	0x9c4
 1817 0ac0 05       		.uleb128 0x5
 1818 0ac1 B50A0000 		.4byte	0xab5
 1819 0ac5 14       		.uleb128 0x14
 1820 0ac6 5D000000 		.4byte	.LASF149
 1821 0aca 02       		.byte	0x2
 1822 0acb 6C       		.byte	0x6c
 1823 0acc C00A0000 		.4byte	0xac0
 1824 0ad0 03       		.uleb128 0x3
 1825 0ad1 200C0000 		.4byte	.LASF150
 1826 0ad5 11       		.byte	0x11
 1827 0ad6 34       		.byte	0x34
 1828 0ad7 48090000 		.4byte	0x948
 1829 0adb 0C       		.uleb128 0xc
 1830 0adc 04       		.byte	0x4
 1831 0add D00A0000 		.4byte	0xad0
 1832 0ae1 03       		.uleb128 0x3
 1833 0ae2 2C040000 		.4byte	.LASF151
 1834 0ae6 13       		.byte	0x13
 1835 0ae7 34       		.byte	0x34
 1836 0ae8 EC0A0000 		.4byte	0xaec
 1837 0aec 07       		.uleb128 0x7
 1838 0aed 7B0C0000 		.4byte	.LASF152
 1839 0af1 14       		.byte	0x14
 1840 0af2 13       		.byte	0x13
 1841 0af3 39       		.byte	0x39
 1842 0af4 350B0000 		.4byte	0xb35
 1843 0af8 08       		.uleb128 0x8
 1844 0af9 480D0000 		.4byte	.LASF50
 1845 0afd 13       		.byte	0x13
 1846 0afe 3A       		.byte	0x3a
 1847 0aff 350B0000 		.4byte	0xb35
 1848 0b03 00       		.byte	0
 1849 0b04 08       		.uleb128 0x8
 1850 0b05 1B0B0000 		.4byte	.LASF153
 1851 0b09 13       		.byte	0x13
 1852 0b0a 3D       		.byte	0x3d
 1853 0b0b 56020000 		.4byte	0x256
 1854 0b0f 04       		.byte	0x4
 1855 0b10 08       		.uleb128 0x8
 1856 0b11 410D0000 		.4byte	.LASF154
 1857 0b15 13       		.byte	0x13
 1858 0b16 3F       		.byte	0x3f
 1859 0b17 36010000 		.4byte	0x136
 1860 0b1b 08       		.byte	0x8
 1861 0b1c 08       		.uleb128 0x8
 1862 0b1d FE030000 		.4byte	.LASF38
 1863 0b21 13       		.byte	0x13
 1864 0b22 41       		.byte	0x41
 1865 0b23 41010000 		.4byte	0x141
 1866 0b27 0C       		.byte	0xc
 1867 0b28 08       		.uleb128 0x8
ARM GAS  C:\Users\Pearl\AppData\Local\Temp\cc4hQ0L2.s 			page 34


 1868 0b29 17090000 		.4byte	.LASF155
 1869 0b2d 13       		.byte	0x13
 1870 0b2e 43       		.byte	0x43
 1871 0b2f 41010000 		.4byte	0x141
 1872 0b33 10       		.byte	0x10
 1873 0b34 00       		.byte	0
 1874 0b35 0C       		.uleb128 0xc
 1875 0b36 04       		.byte	0x4
 1876 0b37 E10A0000 		.4byte	0xae1
 1877 0b3b 07       		.uleb128 0x7
 1878 0b3c 670B0000 		.4byte	.LASF156
 1879 0b40 04       		.byte	0x4
 1880 0b41 13       		.byte	0x13
 1881 0b42 4A       		.byte	0x4a
 1882 0b43 540B0000 		.4byte	0xb54
 1883 0b47 08       		.uleb128 0x8
 1884 0b48 480D0000 		.4byte	.LASF50
 1885 0b4c 13       		.byte	0x13
 1886 0b4d 4B       		.byte	0x4b
 1887 0b4e 350B0000 		.4byte	0xb35
 1888 0b52 00       		.byte	0
 1889 0b53 00       		.byte	0
 1890 0b54 03       		.uleb128 0x3
 1891 0b55 FB060000 		.4byte	.LASF157
 1892 0b59 13       		.byte	0x13
 1893 0b5a 4E       		.byte	0x4e
 1894 0b5b 3B0B0000 		.4byte	0xb3b
 1895 0b5f 04       		.uleb128 0x4
 1896 0b60 01       		.byte	0x1
 1897 0b61 02       		.byte	0x2
 1898 0b62 7D030000 		.4byte	.LASF158
 1899 0b66 03       		.uleb128 0x3
 1900 0b67 83030000 		.4byte	.LASF159
 1901 0b6b 14       		.byte	0x14
 1902 0b6c 47       		.byte	0x47
 1903 0b6d 710B0000 		.4byte	0xb71
 1904 0b71 0C       		.uleb128 0xc
 1905 0b72 04       		.byte	0x4
 1906 0b73 770B0000 		.4byte	0xb77
 1907 0b77 20       		.uleb128 0x20
 1908 0b78 33030000 		.4byte	0x333
 1909 0b7c 8B0B0000 		.4byte	0xb8b
 1910 0b80 0F       		.uleb128 0xf
 1911 0b81 2C000000 		.4byte	0x2c
 1912 0b85 0F       		.uleb128 0xf
 1913 0b86 37000000 		.4byte	0x37
 1914 0b8a 00       		.byte	0
 1915 0b8b 15       		.uleb128 0x15
 1916 0b8c 08       		.byte	0x8
 1917 0b8d 14       		.byte	0x14
 1918 0b8e 51       		.byte	0x51
 1919 0b8f AC0B0000 		.4byte	0xbac
 1920 0b93 08       		.uleb128 0x8
 1921 0b94 B5040000 		.4byte	.LASF160
 1922 0b98 14       		.byte	0x14
 1923 0b99 55       		.byte	0x55
 1924 0b9a AC0B0000 		.4byte	0xbac
ARM GAS  C:\Users\Pearl\AppData\Local\Temp\cc4hQ0L2.s 			page 35


 1925 0b9e 00       		.byte	0
 1926 0b9f 08       		.uleb128 0x8
 1927 0ba0 2B000000 		.4byte	.LASF161
 1928 0ba4 14       		.byte	0x14
 1929 0ba5 59       		.byte	0x59
 1930 0ba6 AC0B0000 		.4byte	0xbac
 1931 0baa 04       		.byte	0x4
 1932 0bab 00       		.byte	0
 1933 0bac 0C       		.uleb128 0xc
 1934 0bad 04       		.byte	0x4
 1935 0bae B4000000 		.4byte	0xb4
 1936 0bb2 03       		.uleb128 0x3
 1937 0bb3 84020000 		.4byte	.LASF162
 1938 0bb7 14       		.byte	0x14
 1939 0bb8 5A       		.byte	0x5a
 1940 0bb9 8B0B0000 		.4byte	0xb8b
 1941 0bbd 14       		.uleb128 0x14
 1942 0bbe FA0C0000 		.4byte	.LASF163
 1943 0bc2 14       		.byte	0x14
 1944 0bc3 65       		.byte	0x65
 1945 0bc4 B20B0000 		.4byte	0xbb2
 1946 0bc8 07       		.uleb128 0x7
 1947 0bc9 FA050000 		.4byte	.LASF164
 1948 0bcd 04       		.byte	0x4
 1949 0bce 15       		.byte	0x15
 1950 0bcf 38       		.byte	0x38
 1951 0bd0 E10B0000 		.4byte	0xbe1
 1952 0bd4 08       		.uleb128 0x8
 1953 0bd5 480D0000 		.4byte	.LASF50
 1954 0bd9 15       		.byte	0x15
 1955 0bda 39       		.byte	0x39
 1956 0bdb E10B0000 		.4byte	0xbe1
 1957 0bdf 00       		.byte	0
 1958 0be0 00       		.byte	0
 1959 0be1 0C       		.uleb128 0xc
 1960 0be2 04       		.byte	0x4
 1961 0be3 C80B0000 		.4byte	0xbc8
 1962 0be7 15       		.uleb128 0x15
 1963 0be8 10       		.byte	0x10
 1964 0be9 15       		.byte	0x15
 1965 0bea 40       		.byte	0x40
 1966 0beb 200C0000 		.4byte	0xc20
 1967 0bef 08       		.uleb128 0x8
 1968 0bf0 480D0000 		.4byte	.LASF50
 1969 0bf4 15       		.byte	0x15
 1970 0bf5 41       		.byte	0x41
 1971 0bf6 E10B0000 		.4byte	0xbe1
 1972 0bfa 00       		.byte	0
 1973 0bfb 08       		.uleb128 0x8
 1974 0bfc 050C0000 		.4byte	.LASF165
 1975 0c00 15       		.byte	0x15
 1976 0c01 42       		.byte	0x42
 1977 0c02 2C000000 		.4byte	0x2c
 1978 0c06 04       		.byte	0x4
 1979 0c07 08       		.uleb128 0x8
 1980 0c08 0A070000 		.4byte	.LASF166
 1981 0c0c 15       		.byte	0x15
ARM GAS  C:\Users\Pearl\AppData\Local\Temp\cc4hQ0L2.s 			page 36


 1982 0c0d 44       		.byte	0x44
 1983 0c0e 37000000 		.4byte	0x37
 1984 0c12 08       		.byte	0x8
 1985 0c13 08       		.uleb128 0x8
 1986 0c14 66000000 		.4byte	.LASF167
 1987 0c18 15       		.byte	0x15
 1988 0c19 45       		.byte	0x45
 1989 0c1a 660B0000 		.4byte	0xb66
 1990 0c1e 0C       		.byte	0xc
 1991 0c1f 00       		.byte	0
 1992 0c20 03       		.uleb128 0x3
 1993 0c21 CE0A0000 		.4byte	.LASF168
 1994 0c25 15       		.byte	0x15
 1995 0c26 47       		.byte	0x47
 1996 0c27 E70B0000 		.4byte	0xbe7
 1997 0c2b 07       		.uleb128 0x7
 1998 0c2c F5000000 		.4byte	.LASF169
 1999 0c30 10       		.byte	0x10
 2000 0c31 16       		.byte	0x16
 2001 0c32 93       		.byte	0x93
 2002 0c33 5C0C0000 		.4byte	0xc5c
 2003 0c37 08       		.uleb128 0x8
 2004 0c38 480D0000 		.4byte	.LASF50
 2005 0c3c 16       		.byte	0x16
 2006 0c3d 97       		.byte	0x97
 2007 0c3e 5C0C0000 		.4byte	0xc5c
 2008 0c42 00       		.byte	0
 2009 0c43 08       		.uleb128 0x8
 2010 0c44 4A0A0000 		.4byte	.LASF39
 2011 0c48 16       		.byte	0x16
 2012 0c49 9B       		.byte	0x9b
 2013 0c4a 57010000 		.4byte	0x157
 2014 0c4e 04       		.byte	0x4
 2015 0c4f 08       		.uleb128 0x8
 2016 0c50 0C0B0000 		.4byte	.LASF35
 2017 0c54 16       		.byte	0x16
 2018 0c55 9D       		.byte	0x9d
 2019 0c56 620C0000 		.4byte	0xc62
 2020 0c5a 08       		.byte	0x8
 2021 0c5b 00       		.byte	0
 2022 0c5c 0C       		.uleb128 0xc
 2023 0c5d 04       		.byte	0x4
 2024 0c5e 2B0C0000 		.4byte	0xc2b
 2025 0c62 11       		.uleb128 0x11
 2026 0c63 8A090000 		.4byte	0x98a
 2027 0c67 720C0000 		.4byte	0xc72
 2028 0c6b 12       		.uleb128 0x12
 2029 0c6c 37000000 		.4byte	0x37
 2030 0c70 07       		.byte	0x7
 2031 0c71 00       		.byte	0
 2032 0c72 03       		.uleb128 0x3
 2033 0c73 7C040000 		.4byte	.LASF170
 2034 0c77 16       		.byte	0x16
 2035 0c78 A1       		.byte	0xa1
 2036 0c79 2B0C0000 		.4byte	0xc2b
 2037 0c7d 07       		.uleb128 0x7
 2038 0c7e 630D0000 		.4byte	.LASF171
ARM GAS  C:\Users\Pearl\AppData\Local\Temp\cc4hQ0L2.s 			page 37


 2039 0c82 04       		.byte	0x4
 2040 0c83 16       		.byte	0x16
 2041 0c84 A6       		.byte	0xa6
 2042 0c85 960C0000 		.4byte	0xc96
 2043 0c89 08       		.uleb128 0x8
 2044 0c8a 480D0000 		.4byte	.LASF50
 2045 0c8e 16       		.byte	0x16
 2046 0c8f A7       		.byte	0xa7
 2047 0c90 960C0000 		.4byte	0xc96
 2048 0c94 00       		.byte	0
 2049 0c95 00       		.byte	0
 2050 0c96 0C       		.uleb128 0xc
 2051 0c97 04       		.byte	0x4
 2052 0c98 720C0000 		.4byte	0xc72
 2053 0c9c 03       		.uleb128 0x3
 2054 0c9d E00B0000 		.4byte	.LASF172
 2055 0ca1 16       		.byte	0x16
 2056 0ca2 A8       		.byte	0xa8
 2057 0ca3 7D0C0000 		.4byte	0xc7d
 2058 0ca7 0D       		.uleb128 0xd
 2059 0ca8 A4060000 		.4byte	.LASF173
 2060 0cac 44       		.byte	0x44
 2061 0cad 16       		.byte	0x16
 2062 0cae 1101     		.2byte	0x111
 2063 0cb0 1D0D0000 		.4byte	0xd1d
 2064 0cb4 0A       		.uleb128 0xa
 2065 0cb5 6D747800 		.ascii	"mtx\000"
 2066 0cb9 16       		.byte	0x16
 2067 0cba 1601     		.2byte	0x116
 2068 0cbc D00A0000 		.4byte	0xad0
 2069 0cc0 00       		.byte	0
 2070 0cc1 0B       		.uleb128 0xb
 2071 0cc2 5B010000 		.4byte	.LASF174
 2072 0cc6 16       		.byte	0x16
 2073 0cc7 1D01     		.2byte	0x11d
 2074 0cc9 9C0C0000 		.4byte	0xc9c
 2075 0ccd 10       		.byte	0x10
 2076 0cce 0B       		.uleb128 0xb
 2077 0ccf 35020000 		.4byte	.LASF175
 2078 0cd3 16       		.byte	0x16
 2079 0cd4 2101     		.2byte	0x121
 2080 0cd6 200C0000 		.4byte	0xc20
 2081 0cda 14       		.byte	0x14
 2082 0cdb 0B       		.uleb128 0xb
 2083 0cdc 57090000 		.4byte	.LASF176
 2084 0ce0 16       		.byte	0x16
 2085 0ce1 2601     		.2byte	0x126
 2086 0ce3 9C0C0000 		.4byte	0xc9c
 2087 0ce7 24       		.byte	0x24
 2088 0ce8 0B       		.uleb128 0xb
 2089 0ce9 C6030000 		.4byte	.LASF177
 2090 0ced 16       		.byte	0x16
 2091 0cee 2C01     		.2byte	0x12c
 2092 0cf0 9C0C0000 		.4byte	0xc9c
 2093 0cf4 28       		.byte	0x28
 2094 0cf5 0B       		.uleb128 0xb
 2095 0cf6 A5040000 		.4byte	.LASF178
ARM GAS  C:\Users\Pearl\AppData\Local\Temp\cc4hQ0L2.s 			page 38


 2096 0cfa 16       		.byte	0x16
 2097 0cfb 3001     		.2byte	0x130
 2098 0cfd 200C0000 		.4byte	0xc20
 2099 0d01 2C       		.byte	0x2c
 2100 0d02 0B       		.uleb128 0xb
 2101 0d03 740A0000 		.4byte	.LASF179
 2102 0d07 16       		.byte	0x16
 2103 0d08 3601     		.2byte	0x136
 2104 0d0a 9C0C0000 		.4byte	0xc9c
 2105 0d0e 3C       		.byte	0x3c
 2106 0d0f 0B       		.uleb128 0xb
 2107 0d10 A6050000 		.4byte	.LASF180
 2108 0d14 16       		.byte	0x16
 2109 0d15 3C01     		.2byte	0x13c
 2110 0d17 9C0C0000 		.4byte	0xc9c
 2111 0d1b 40       		.byte	0x40
 2112 0d1c 00       		.byte	0
 2113 0d1d 19       		.uleb128 0x19
 2114 0d1e 45090000 		.4byte	.LASF181
 2115 0d22 16       		.byte	0x16
 2116 0d23 3E01     		.2byte	0x13e
 2117 0d25 A70C0000 		.4byte	0xca7
 2118 0d29 13       		.uleb128 0x13
 2119 0d2a 610A0000 		.4byte	.LASF182
 2120 0d2e 16       		.byte	0x16
 2121 0d2f 4901     		.2byte	0x149
 2122 0d31 1D0D0000 		.4byte	0xd1d
 2123 0d35 15       		.uleb128 0x15
 2124 0d36 10       		.byte	0x10
 2125 0d37 17       		.byte	0x17
 2126 0d38 F0       		.byte	0xf0
 2127 0d39 920D0000 		.4byte	0xd92
 2128 0d3d 09       		.uleb128 0x9
 2129 0d3e 646D6100 		.ascii	"dma\000"
 2130 0d42 17       		.byte	0x17
 2131 0d43 F1       		.byte	0xf1
 2132 0d44 920D0000 		.4byte	0xd92
 2133 0d48 00       		.byte	0
 2134 0d49 08       		.uleb128 0x8
 2135 0d4a 36050000 		.4byte	.LASF183
 2136 0d4e 17       		.byte	0x17
 2137 0d4f F2       		.byte	0xf2
 2138 0d50 980D0000 		.4byte	0xd98
 2139 0d54 04       		.byte	0x4
 2140 0d55 08       		.uleb128 0x8
 2141 0d56 7E090000 		.4byte	.LASF184
 2142 0d5a 17       		.byte	0x17
 2143 0d5b F3       		.byte	0xf3
 2144 0d5c E4000000 		.4byte	0xe4
 2145 0d60 08       		.byte	0x8
 2146 0d61 08       		.uleb128 0x8
 2147 0d62 EA0A0000 		.4byte	.LASF185
 2148 0d66 17       		.byte	0x17
 2149 0d67 FA       		.byte	0xfa
 2150 0d68 B4000000 		.4byte	0xb4
 2151 0d6c 0C       		.byte	0xc
 2152 0d6d 08       		.uleb128 0x8
ARM GAS  C:\Users\Pearl\AppData\Local\Temp\cc4hQ0L2.s 			page 39


 2153 0d6e 30050000 		.4byte	.LASF186
 2154 0d72 17       		.byte	0x17
 2155 0d73 FC       		.byte	0xfc
 2156 0d74 B4000000 		.4byte	0xb4
 2157 0d78 0D       		.byte	0xd
 2158 0d79 08       		.uleb128 0x8
 2159 0d7a 96070000 		.4byte	.LASF187
 2160 0d7e 17       		.byte	0x17
 2161 0d7f FE       		.byte	0xfe
 2162 0d80 B4000000 		.4byte	0xb4
 2163 0d84 0E       		.byte	0xe
 2164 0d85 08       		.uleb128 0x8
 2165 0d86 5A0A0000 		.4byte	.LASF188
 2166 0d8a 17       		.byte	0x17
 2167 0d8b FF       		.byte	0xff
 2168 0d8c B4000000 		.4byte	0xb4
 2169 0d90 0F       		.byte	0xf
 2170 0d91 00       		.byte	0
 2171 0d92 0C       		.uleb128 0xc
 2172 0d93 04       		.byte	0x4
 2173 0d94 8A070000 		.4byte	0x78a
 2174 0d98 0C       		.uleb128 0xc
 2175 0d99 04       		.byte	0x4
 2176 0d9a 5A070000 		.4byte	0x75a
 2177 0d9e 19       		.uleb128 0x19
 2178 0d9f 08000000 		.4byte	.LASF189
 2179 0da3 17       		.byte	0x17
 2180 0da4 0001     		.2byte	0x100
 2181 0da6 350D0000 		.4byte	0xd35
 2182 0daa 05       		.uleb128 0x5
 2183 0dab 9E0D0000 		.4byte	0xd9e
 2184 0daf 19       		.uleb128 0x19
 2185 0db0 B6070000 		.4byte	.LASF190
 2186 0db4 17       		.byte	0x17
 2187 0db5 0901     		.2byte	0x109
 2188 0db7 BB0D0000 		.4byte	0xdbb
 2189 0dbb 0C       		.uleb128 0xc
 2190 0dbc 04       		.byte	0x4
 2191 0dbd C10D0000 		.4byte	0xdc1
 2192 0dc1 0E       		.uleb128 0xe
 2193 0dc2 D10D0000 		.4byte	0xdd1
 2194 0dc6 0F       		.uleb128 0xf
 2195 0dc7 33030000 		.4byte	0x333
 2196 0dcb 0F       		.uleb128 0xf
 2197 0dcc E4000000 		.4byte	0xe4
 2198 0dd0 00       		.byte	0
 2199 0dd1 1A       		.uleb128 0x1a
 2200 0dd2 08       		.byte	0x8
 2201 0dd3 17       		.byte	0x17
 2202 0dd4 0E01     		.2byte	0x10e
 2203 0dd6 F50D0000 		.4byte	0xdf5
 2204 0dda 0B       		.uleb128 0xb
 2205 0ddb 63040000 		.4byte	.LASF191
 2206 0ddf 17       		.byte	0x17
 2207 0de0 0F01     		.2byte	0x10f
 2208 0de2 AF0D0000 		.4byte	0xdaf
 2209 0de6 00       		.byte	0
ARM GAS  C:\Users\Pearl\AppData\Local\Temp\cc4hQ0L2.s 			page 40


 2210 0de7 0B       		.uleb128 0xb
 2211 0de8 FB0B0000 		.4byte	.LASF192
 2212 0dec 17       		.byte	0x17
 2213 0ded 1001     		.2byte	0x110
 2214 0def 33030000 		.4byte	0x333
 2215 0df3 04       		.byte	0x4
 2216 0df4 00       		.byte	0
 2217 0df5 19       		.uleb128 0x19
 2218 0df6 0B080000 		.4byte	.LASF193
 2219 0dfa 17       		.byte	0x17
 2220 0dfb 1101     		.2byte	0x111
 2221 0dfd D10D0000 		.4byte	0xdd1
 2222 0e01 11       		.uleb128 0x11
 2223 0e02 AA0D0000 		.4byte	0xdaa
 2224 0e06 110E0000 		.4byte	0xe11
 2225 0e0a 12       		.uleb128 0x12
 2226 0e0b 37000000 		.4byte	0x37
 2227 0e0f 06       		.byte	0x6
 2228 0e10 00       		.byte	0
 2229 0e11 05       		.uleb128 0x5
 2230 0e12 010E0000 		.4byte	0xe01
 2231 0e16 13       		.uleb128 0x13
 2232 0e17 70050000 		.4byte	.LASF194
 2233 0e1b 17       		.byte	0x17
 2234 0e1c DF01     		.2byte	0x1df
 2235 0e1e 110E0000 		.4byte	0xe11
 2236 0e22 11       		.uleb128 0x11
 2237 0e23 F50D0000 		.4byte	0xdf5
 2238 0e27 320E0000 		.4byte	0xe32
 2239 0e2b 12       		.uleb128 0x12
 2240 0e2c 37000000 		.4byte	0x37
 2241 0e30 06       		.byte	0x6
 2242 0e31 00       		.byte	0
 2243 0e32 13       		.uleb128 0x13
 2244 0e33 480B0000 		.4byte	.LASF195
 2245 0e37 17       		.byte	0x17
 2246 0e38 E001     		.2byte	0x1e0
 2247 0e3a 220E0000 		.4byte	0xe22
 2248 0e3e 21       		.uleb128 0x21
 2249 0e3f 00       		.byte	0
 2250 0e40 18       		.byte	0x18
 2251 0e41 99       		.byte	0x99
 2252 0e42 03       		.uleb128 0x3
 2253 0e43 EA030000 		.4byte	.LASF196
 2254 0e47 18       		.byte	0x18
 2255 0e48 AA       		.byte	0xaa
 2256 0e49 3E0E0000 		.4byte	0xe3e
 2257 0e4d 15       		.uleb128 0x15
 2258 0e4e 0C       		.byte	0xc
 2259 0e4f 19       		.byte	0x19
 2260 0e50 68       		.byte	0x68
 2261 0e51 7A0E0000 		.4byte	0xe7a
 2262 0e55 09       		.uleb128 0x9
 2263 0e56 6F647200 		.ascii	"odr\000"
 2264 0e5a 19       		.byte	0x19
 2265 0e5b 6A       		.byte	0x6a
 2266 0e5c E4000000 		.4byte	0xe4
ARM GAS  C:\Users\Pearl\AppData\Local\Temp\cc4hQ0L2.s 			page 41


 2267 0e60 00       		.byte	0
 2268 0e61 09       		.uleb128 0x9
 2269 0e62 63726C00 		.ascii	"crl\000"
 2270 0e66 19       		.byte	0x19
 2271 0e67 6C       		.byte	0x6c
 2272 0e68 E4000000 		.4byte	0xe4
 2273 0e6c 04       		.byte	0x4
 2274 0e6d 09       		.uleb128 0x9
 2275 0e6e 63726800 		.ascii	"crh\000"
 2276 0e72 19       		.byte	0x19
 2277 0e73 6E       		.byte	0x6e
 2278 0e74 E4000000 		.4byte	0xe4
 2279 0e78 08       		.byte	0x8
 2280 0e79 00       		.byte	0
 2281 0e7a 03       		.uleb128 0x3
 2282 0e7b 7C010000 		.4byte	.LASF197
 2283 0e7f 19       		.byte	0x19
 2284 0e80 6F       		.byte	0x6f
 2285 0e81 4D0E0000 		.4byte	0xe4d
 2286 0e85 15       		.uleb128 0x15
 2287 0e86 3C       		.byte	0x3c
 2288 0e87 19       		.byte	0x19
 2289 0e88 78       		.byte	0x78
 2290 0e89 CA0E0000 		.4byte	0xeca
 2291 0e8d 08       		.uleb128 0x8
 2292 0e8e D3090000 		.4byte	.LASF198
 2293 0e92 19       		.byte	0x19
 2294 0e93 7A       		.byte	0x7a
 2295 0e94 7A0E0000 		.4byte	0xe7a
 2296 0e98 00       		.byte	0
 2297 0e99 08       		.uleb128 0x8
 2298 0e9a 48070000 		.4byte	.LASF199
 2299 0e9e 19       		.byte	0x19
 2300 0e9f 7C       		.byte	0x7c
 2301 0ea0 7A0E0000 		.4byte	0xe7a
 2302 0ea4 0C       		.byte	0xc
 2303 0ea5 08       		.uleb128 0x8
 2304 0ea6 AE040000 		.4byte	.LASF200
 2305 0eaa 19       		.byte	0x19
 2306 0eab 7E       		.byte	0x7e
 2307 0eac 7A0E0000 		.4byte	0xe7a
 2308 0eb0 18       		.byte	0x18
 2309 0eb1 08       		.uleb128 0x8
 2310 0eb2 4C030000 		.4byte	.LASF201
 2311 0eb6 19       		.byte	0x19
 2312 0eb7 80       		.byte	0x80
 2313 0eb8 7A0E0000 		.4byte	0xe7a
 2314 0ebc 24       		.byte	0x24
 2315 0ebd 08       		.uleb128 0x8
 2316 0ebe 2F010000 		.4byte	.LASF202
 2317 0ec2 19       		.byte	0x19
 2318 0ec3 83       		.byte	0x83
 2319 0ec4 7A0E0000 		.4byte	0xe7a
 2320 0ec8 30       		.byte	0x30
 2321 0ec9 00       		.byte	0
 2322 0eca 03       		.uleb128 0x3
 2323 0ecb EB0B0000 		.4byte	.LASF203
ARM GAS  C:\Users\Pearl\AppData\Local\Temp\cc4hQ0L2.s 			page 42


 2324 0ecf 19       		.byte	0x19
 2325 0ed0 8D       		.byte	0x8d
 2326 0ed1 850E0000 		.4byte	0xe85
 2327 0ed5 05       		.uleb128 0x5
 2328 0ed6 CA0E0000 		.4byte	0xeca
 2329 0eda 13       		.uleb128 0x13
 2330 0edb 6C020000 		.4byte	.LASF204
 2331 0edf 19       		.byte	0x19
 2332 0ee0 A001     		.2byte	0x1a0
 2333 0ee2 D50E0000 		.4byte	0xed5
 2334 0ee6 11       		.uleb128 0x11
 2335 0ee7 420E0000 		.4byte	0xe42
 2336 0eeb F60E0000 		.4byte	0xef6
 2337 0eef 12       		.uleb128 0x12
 2338 0ef0 37000000 		.4byte	0x37
 2339 0ef4 0F       		.byte	0xf
 2340 0ef5 00       		.byte	0
 2341 0ef6 13       		.uleb128 0x13
 2342 0ef7 F6080000 		.4byte	.LASF205
 2343 0efb 19       		.byte	0x19
 2344 0efc A101     		.2byte	0x1a1
 2345 0efe E60E0000 		.4byte	0xee6
 2346 0f02 22       		.uleb128 0x22
 2347 0f03 07       		.byte	0x7
 2348 0f04 01       		.byte	0x1
 2349 0f05 5E000000 		.4byte	0x5e
 2350 0f09 1A       		.byte	0x1a
 2351 0f0a 66       		.byte	0x66
 2352 0f0b 2E0F0000 		.4byte	0xf2e
 2353 0f0f 23       		.uleb128 0x23
 2354 0f10 5F070000 		.4byte	.LASF206
 2355 0f14 00       		.byte	0
 2356 0f15 23       		.uleb128 0x23
 2357 0f16 380D0000 		.4byte	.LASF207
 2358 0f1a 01       		.byte	0x1
 2359 0f1b 23       		.uleb128 0x23
 2360 0f1c 76060000 		.4byte	.LASF208
 2361 0f20 02       		.byte	0x2
 2362 0f21 23       		.uleb128 0x23
 2363 0f22 50040000 		.4byte	.LASF209
 2364 0f26 03       		.byte	0x3
 2365 0f27 23       		.uleb128 0x23
 2366 0f28 82070000 		.4byte	.LASF210
 2367 0f2c 04       		.byte	0x4
 2368 0f2d 00       		.byte	0
 2369 0f2e 03       		.uleb128 0x3
 2370 0f2f 45040000 		.4byte	.LASF211
 2371 0f33 1A       		.byte	0x1a
 2372 0f34 6C       		.byte	0x6c
 2373 0f35 020F0000 		.4byte	0xf02
 2374 0f39 03       		.uleb128 0x3
 2375 0f3a A2010000 		.4byte	.LASF212
 2376 0f3e 1B       		.byte	0x1b
 2377 0f3f C2       		.byte	0xc2
 2378 0f40 440F0000 		.4byte	0xf44
 2379 0f44 0D       		.uleb128 0xd
 2380 0f45 A2010000 		.4byte	.LASF212
ARM GAS  C:\Users\Pearl\AppData\Local\Temp\cc4hQ0L2.s 			page 43


 2381 0f49 30       		.byte	0x30
 2382 0f4a 1B       		.byte	0x1b
 2383 0f4b 4801     		.2byte	0x148
 2384 0f4d D40F0000 		.4byte	0xfd4
 2385 0f51 0B       		.uleb128 0xb
 2386 0f52 29010000 		.4byte	.LASF37
 2387 0f56 1B       		.byte	0x1b
 2388 0f57 4C01     		.2byte	0x14c
 2389 0f59 2E0F0000 		.4byte	0xf2e
 2390 0f5d 00       		.byte	0
 2391 0f5e 0B       		.uleb128 0xb
 2392 0f5f 22010000 		.4byte	.LASF213
 2393 0f63 1B       		.byte	0x1b
 2394 0f64 5001     		.2byte	0x150
 2395 0f66 09100000 		.4byte	0x1009
 2396 0f6a 04       		.byte	0x4
 2397 0f6b 0B       		.uleb128 0xb
 2398 0f6c A80B0000 		.4byte	.LASF214
 2399 0f70 1B       		.byte	0x1b
 2400 0f71 5401     		.2byte	0x154
 2401 0f73 80020000 		.4byte	0x280
 2402 0f77 08       		.byte	0x8
 2403 0f78 0B       		.uleb128 0xb
 2404 0f79 6C0A0000 		.4byte	.LASF215
 2405 0f7d 1B       		.byte	0x1b
 2406 0f7e 5801     		.2byte	0x158
 2407 0f80 80020000 		.4byte	0x280
 2408 0f84 10       		.byte	0x10
 2409 0f85 0B       		.uleb128 0xb
 2410 0f86 DD020000 		.4byte	.LASF216
 2411 0f8a 1B       		.byte	0x1b
 2412 0f8b 6601     		.2byte	0x166
 2413 0f8d 540B0000 		.4byte	0xb54
 2414 0f91 18       		.byte	0x18
 2415 0f92 0B       		.uleb128 0xb
 2416 0f93 850D0000 		.4byte	.LASF217
 2417 0f97 1B       		.byte	0x1b
 2418 0f98 6E01     		.2byte	0x16e
 2419 0f9a 540B0000 		.4byte	0xb54
 2420 0f9e 1C       		.byte	0x1c
 2421 0f9f 0B       		.uleb128 0xb
 2422 0fa0 E7070000 		.4byte	.LASF218
 2423 0fa4 1B       		.byte	0x1b
 2424 0fa5 7601     		.2byte	0x176
 2425 0fa7 540B0000 		.4byte	0xb54
 2426 0fab 20       		.byte	0x20
 2427 0fac 0B       		.uleb128 0xb
 2428 0fad A8000000 		.4byte	.LASF219
 2429 0fb1 1B       		.byte	0x1b
 2430 0fb2 7B01     		.2byte	0x17b
 2431 0fb4 540B0000 		.4byte	0xb54
 2432 0fb8 24       		.byte	0x24
 2433 0fb9 0B       		.uleb128 0xb
 2434 0fba 04010000 		.4byte	.LASF220
 2435 0fbe 1B       		.byte	0x1b
 2436 0fbf 7F01     		.2byte	0x17f
 2437 0fc1 540B0000 		.4byte	0xb54
ARM GAS  C:\Users\Pearl\AppData\Local\Temp\cc4hQ0L2.s 			page 44


 2438 0fc5 28       		.byte	0x28
 2439 0fc6 0A       		.uleb128 0xa
 2440 0fc7 63616E00 		.ascii	"can\000"
 2441 0fcb 1B       		.byte	0x1b
 2442 0fcc A201     		.2byte	0x1a2
 2443 0fce 0F100000 		.4byte	0x100f
 2444 0fd2 2C       		.byte	0x2c
 2445 0fd3 00       		.byte	0
 2446 0fd4 1A       		.uleb128 0x1a
 2447 0fd5 08       		.byte	0x8
 2448 0fd6 1B       		.byte	0x1b
 2449 0fd7 3601     		.2byte	0x136
 2450 0fd9 F80F0000 		.4byte	0xff8
 2451 0fdd 0A       		.uleb128 0xa
 2452 0fde 6D637200 		.ascii	"mcr\000"
 2453 0fe2 1B       		.byte	0x1b
 2454 0fe3 3C01     		.2byte	0x13c
 2455 0fe5 E4000000 		.4byte	0xe4
 2456 0fe9 00       		.byte	0
 2457 0fea 0A       		.uleb128 0xa
 2458 0feb 62747200 		.ascii	"btr\000"
 2459 0fef 1B       		.byte	0x1b
 2460 0ff0 4201     		.2byte	0x142
 2461 0ff2 E4000000 		.4byte	0xe4
 2462 0ff6 04       		.byte	0x4
 2463 0ff7 00       		.byte	0
 2464 0ff8 19       		.uleb128 0x19
 2465 0ff9 3E010000 		.4byte	.LASF221
 2466 0ffd 1B       		.byte	0x1b
 2467 0ffe 4301     		.2byte	0x143
 2468 1000 D40F0000 		.4byte	0xfd4
 2469 1004 05       		.uleb128 0x5
 2470 1005 F80F0000 		.4byte	0xff8
 2471 1009 0C       		.uleb128 0xc
 2472 100a 04       		.byte	0x4
 2473 100b 04100000 		.4byte	0x1004
 2474 100f 0C       		.uleb128 0xc
 2475 1010 04       		.byte	0x4
 2476 1011 10070000 		.4byte	0x710
 2477 1015 13       		.uleb128 0x13
 2478 1016 7F0D0000 		.4byte	.LASF222
 2479 101a 1B       		.byte	0x1b
 2480 101b AE01     		.2byte	0x1ae
 2481 101d 390F0000 		.4byte	0xf39
 2482 1021 22       		.uleb128 0x22
 2483 1022 07       		.byte	0x7
 2484 1023 01       		.byte	0x1
 2485 1024 5E000000 		.4byte	0x5e
 2486 1028 1C       		.byte	0x1c
 2487 1029 59       		.byte	0x59
 2488 102a 41100000 		.4byte	0x1041
 2489 102e 23       		.uleb128 0x23
 2490 102f 06060000 		.4byte	.LASF223
 2491 1033 00       		.byte	0
 2492 1034 23       		.uleb128 0x23
 2493 1035 DF000000 		.4byte	.LASF224
 2494 1039 01       		.byte	0x1
ARM GAS  C:\Users\Pearl\AppData\Local\Temp\cc4hQ0L2.s 			page 45


 2495 103a 23       		.uleb128 0x23
 2496 103b 9A030000 		.4byte	.LASF225
 2497 103f 02       		.byte	0x2
 2498 1040 00       		.byte	0
 2499 1041 03       		.uleb128 0x3
 2500 1042 B00B0000 		.4byte	.LASF226
 2501 1046 1C       		.byte	0x1c
 2502 1047 5D       		.byte	0x5d
 2503 1048 21100000 		.4byte	0x1021
 2504 104c 22       		.uleb128 0x22
 2505 104d 07       		.byte	0x7
 2506 104e 01       		.byte	0x1
 2507 104f 5E000000 		.4byte	0x5e
 2508 1053 1C       		.byte	0x1c
 2509 1054 62       		.byte	0x62
 2510 1055 6C100000 		.4byte	0x106c
 2511 1059 23       		.uleb128 0x23
 2512 105a 4C0C0000 		.4byte	.LASF227
 2513 105e 00       		.byte	0
 2514 105f 23       		.uleb128 0x23
 2515 1060 AC010000 		.4byte	.LASF228
 2516 1064 01       		.byte	0x1
 2517 1065 23       		.uleb128 0x23
 2518 1066 9E0A0000 		.4byte	.LASF229
 2519 106a 02       		.byte	0x2
 2520 106b 00       		.byte	0
 2521 106c 03       		.uleb128 0x3
 2522 106d 53020000 		.4byte	.LASF230
 2523 1071 1C       		.byte	0x1c
 2524 1072 66       		.byte	0x66
 2525 1073 4C100000 		.4byte	0x104c
 2526 1077 22       		.uleb128 0x22
 2527 1078 07       		.byte	0x7
 2528 1079 01       		.byte	0x1
 2529 107a 5E000000 		.4byte	0x5e
 2530 107e 1C       		.byte	0x1c
 2531 107f 6B       		.byte	0x6b
 2532 1080 97100000 		.4byte	0x1097
 2533 1084 23       		.uleb128 0x23
 2534 1085 FA0A0000 		.4byte	.LASF231
 2535 1089 00       		.byte	0
 2536 108a 23       		.uleb128 0x23
 2537 108b E3090000 		.4byte	.LASF232
 2538 108f 01       		.byte	0x1
 2539 1090 23       		.uleb128 0x23
 2540 1091 22060000 		.4byte	.LASF233
 2541 1095 02       		.byte	0x2
 2542 1096 00       		.byte	0
 2543 1097 03       		.uleb128 0x3
 2544 1098 AF0A0000 		.4byte	.LASF234
 2545 109c 1C       		.byte	0x1c
 2546 109d 6F       		.byte	0x6f
 2547 109e 77100000 		.4byte	0x1077
 2548 10a2 19       		.uleb128 0x19
 2549 10a3 70070000 		.4byte	.LASF235
 2550 10a7 1D       		.byte	0x1d
 2551 10a8 B301     		.2byte	0x1b3
ARM GAS  C:\Users\Pearl\AppData\Local\Temp\cc4hQ0L2.s 			page 46


 2552 10aa E4000000 		.4byte	0xe4
 2553 10ae 19       		.uleb128 0x19
 2554 10af BB010000 		.4byte	.LASF236
 2555 10b3 1D       		.byte	0x1d
 2556 10b4 B801     		.2byte	0x1b8
 2557 10b6 BA100000 		.4byte	0x10ba
 2558 10ba 0D       		.uleb128 0xd
 2559 10bb BB010000 		.4byte	.LASF236
 2560 10bf 1C       		.byte	0x1c
 2561 10c0 1D       		.byte	0x1d
 2562 10c1 0002     		.2byte	0x200
 2563 10c3 3D110000 		.4byte	0x113d
 2564 10c7 0B       		.uleb128 0xb
 2565 10c8 29010000 		.4byte	.LASF37
 2566 10cc 1D       		.byte	0x1d
 2567 10cd 0402     		.2byte	0x204
 2568 10cf 41100000 		.4byte	0x1041
 2569 10d3 00       		.byte	0
 2570 10d4 0B       		.uleb128 0xb
 2571 10d5 2D020000 		.4byte	.LASF237
 2572 10d9 1D       		.byte	0x1d
 2573 10da 0802     		.2byte	0x208
 2574 10dc 6C100000 		.4byte	0x106c
 2575 10e0 01       		.byte	0x1
 2576 10e1 0B       		.uleb128 0xb
 2577 10e2 36010000 		.4byte	.LASF238
 2578 10e6 1D       		.byte	0x1d
 2579 10e7 0C02     		.2byte	0x20c
 2580 10e9 97100000 		.4byte	0x1097
 2581 10ed 02       		.byte	0x2
 2582 10ee 0B       		.uleb128 0xb
 2583 10ef 22010000 		.4byte	.LASF213
 2584 10f3 1D       		.byte	0x1d
 2585 10f4 1002     		.2byte	0x210
 2586 10f6 34120000 		.4byte	0x1234
 2587 10fa 04       		.byte	0x4
 2588 10fb 0B       		.uleb128 0xb
 2589 10fc 66020000 		.4byte	.LASF239
 2590 1100 1D       		.byte	0x1d
 2591 1101 2C02     		.2byte	0x22c
 2592 1103 3A120000 		.4byte	0x123a
 2593 1107 08       		.byte	0x8
 2594 1108 0B       		.uleb128 0xb
 2595 1109 57070000 		.4byte	.LASF240
 2596 110d 1D       		.byte	0x1d
 2597 110e 3002     		.2byte	0x230
 2598 1110 E4000000 		.4byte	0xe4
 2599 1114 0C       		.byte	0xc
 2600 1115 0B       		.uleb128 0xb
 2601 1116 46060000 		.4byte	.LASF241
 2602 111a 1D       		.byte	0x1d
 2603 111b 3402     		.2byte	0x234
 2604 111d 40120000 		.4byte	0x1240
 2605 1121 10       		.byte	0x10
 2606 1122 0B       		.uleb128 0xb
 2607 1123 7C070000 		.4byte	.LASF242
 2608 1127 1D       		.byte	0x1d
ARM GAS  C:\Users\Pearl\AppData\Local\Temp\cc4hQ0L2.s 			page 47


 2609 1128 3802     		.2byte	0x238
 2610 112a 40120000 		.4byte	0x1240
 2611 112e 14       		.byte	0x14
 2612 112f 0B       		.uleb128 0xb
 2613 1130 40060000 		.4byte	.LASF243
 2614 1134 1D       		.byte	0x1d
 2615 1135 3C02     		.2byte	0x23c
 2616 1137 CF000000 		.4byte	0xcf
 2617 113b 18       		.byte	0x18
 2618 113c 00       		.byte	0
 2619 113d 19       		.uleb128 0x19
 2620 113e 590C0000 		.4byte	.LASF244
 2621 1142 1D       		.byte	0x1d
 2622 1143 BF01     		.2byte	0x1bf
 2623 1145 49110000 		.4byte	0x1149
 2624 1149 0C       		.uleb128 0xc
 2625 114a 04       		.byte	0x4
 2626 114b 4F110000 		.4byte	0x114f
 2627 114f 0E       		.uleb128 0xe
 2628 1150 5A110000 		.4byte	0x115a
 2629 1154 0F       		.uleb128 0xf
 2630 1155 5A110000 		.4byte	0x115a
 2631 1159 00       		.byte	0
 2632 115a 0C       		.uleb128 0xc
 2633 115b 04       		.byte	0x4
 2634 115c AE100000 		.4byte	0x10ae
 2635 1160 19       		.uleb128 0x19
 2636 1161 C40A0000 		.4byte	.LASF245
 2637 1165 1D       		.byte	0x1d
 2638 1166 C701     		.2byte	0x1c7
 2639 1168 6C110000 		.4byte	0x116c
 2640 116c 0C       		.uleb128 0xc
 2641 116d 04       		.byte	0x4
 2642 116e 72110000 		.4byte	0x1172
 2643 1172 0E       		.uleb128 0xe
 2644 1173 82110000 		.4byte	0x1182
 2645 1177 0F       		.uleb128 0xf
 2646 1178 5A110000 		.4byte	0x115a
 2647 117c 0F       		.uleb128 0xf
 2648 117d C4000000 		.4byte	0xc4
 2649 1181 00       		.byte	0
 2650 1182 19       		.uleb128 0x19
 2651 1183 D3050000 		.4byte	.LASF246
 2652 1187 1D       		.byte	0x1d
 2653 1188 CF01     		.2byte	0x1cf
 2654 118a 8E110000 		.4byte	0x118e
 2655 118e 0C       		.uleb128 0xc
 2656 118f 04       		.byte	0x4
 2657 1190 94110000 		.4byte	0x1194
 2658 1194 0E       		.uleb128 0xe
 2659 1195 A4110000 		.4byte	0x11a4
 2660 1199 0F       		.uleb128 0xf
 2661 119a 5A110000 		.4byte	0x115a
 2662 119e 0F       		.uleb128 0xf
 2663 119f A2100000 		.4byte	0x10a2
 2664 11a3 00       		.byte	0
 2665 11a4 1A       		.uleb128 0x1a
ARM GAS  C:\Users\Pearl\AppData\Local\Temp\cc4hQ0L2.s 			page 48


 2666 11a5 20       		.byte	0x20
 2667 11a6 1D       		.byte	0x1d
 2668 11a7 D501     		.2byte	0x1d5
 2669 11a9 23120000 		.4byte	0x1223
 2670 11ad 0B       		.uleb128 0xb
 2671 11ae F00A0000 		.4byte	.LASF247
 2672 11b2 1D       		.byte	0x1d
 2673 11b3 D901     		.2byte	0x1d9
 2674 11b5 3D110000 		.4byte	0x113d
 2675 11b9 00       		.byte	0
 2676 11ba 0B       		.uleb128 0xb
 2677 11bb 9C050000 		.4byte	.LASF248
 2678 11bf 1D       		.byte	0x1d
 2679 11c0 DD01     		.2byte	0x1dd
 2680 11c2 3D110000 		.4byte	0x113d
 2681 11c6 04       		.byte	0x4
 2682 11c7 0B       		.uleb128 0xb
 2683 11c8 64010000 		.4byte	.LASF249
 2684 11cc 1D       		.byte	0x1d
 2685 11cd E101     		.2byte	0x1e1
 2686 11cf 3D110000 		.4byte	0x113d
 2687 11d3 08       		.byte	0x8
 2688 11d4 0B       		.uleb128 0xb
 2689 11d5 72040000 		.4byte	.LASF250
 2690 11d9 1D       		.byte	0x1d
 2691 11da E501     		.2byte	0x1e5
 2692 11dc 60110000 		.4byte	0x1160
 2693 11e0 0C       		.byte	0xc
 2694 11e1 0B       		.uleb128 0xb
 2695 11e2 A0070000 		.4byte	.LASF251
 2696 11e6 1D       		.byte	0x1d
 2697 11e7 E901     		.2byte	0x1e9
 2698 11e9 82110000 		.4byte	0x1182
 2699 11ed 10       		.byte	0x10
 2700 11ee 0B       		.uleb128 0xb
 2701 11ef 8A040000 		.4byte	.LASF252
 2702 11f3 1D       		.byte	0x1d
 2703 11f4 EE01     		.2byte	0x1ee
 2704 11f6 E4000000 		.4byte	0xe4
 2705 11fa 14       		.byte	0x14
 2706 11fb 0A       		.uleb128 0xa
 2707 11fc 63723100 		.ascii	"cr1\000"
 2708 1200 1D       		.byte	0x1d
 2709 1201 F201     		.2byte	0x1f2
 2710 1203 C4000000 		.4byte	0xc4
 2711 1207 18       		.byte	0x18
 2712 1208 0A       		.uleb128 0xa
 2713 1209 63723200 		.ascii	"cr2\000"
 2714 120d 1D       		.byte	0x1d
 2715 120e F601     		.2byte	0x1f6
 2716 1210 C4000000 		.4byte	0xc4
 2717 1214 1A       		.byte	0x1a
 2718 1215 0A       		.uleb128 0xa
 2719 1216 63723300 		.ascii	"cr3\000"
 2720 121a 1D       		.byte	0x1d
 2721 121b FA01     		.2byte	0x1fa
 2722 121d C4000000 		.4byte	0xc4
ARM GAS  C:\Users\Pearl\AppData\Local\Temp\cc4hQ0L2.s 			page 49


 2723 1221 1C       		.byte	0x1c
 2724 1222 00       		.byte	0
 2725 1223 19       		.uleb128 0x19
 2726 1224 08050000 		.4byte	.LASF253
 2727 1228 1D       		.byte	0x1d
 2728 1229 FB01     		.2byte	0x1fb
 2729 122b A4110000 		.4byte	0x11a4
 2730 122f 05       		.uleb128 0x5
 2731 1230 23120000 		.4byte	0x1223
 2732 1234 0C       		.uleb128 0xc
 2733 1235 04       		.byte	0x4
 2734 1236 2F120000 		.4byte	0x122f
 2735 123a 0C       		.uleb128 0xc
 2736 123b 04       		.byte	0x4
 2737 123c F9070000 		.4byte	0x7f9
 2738 1240 0C       		.uleb128 0xc
 2739 1241 04       		.byte	0x4
 2740 1242 AA0D0000 		.4byte	0xdaa
 2741 1246 13       		.uleb128 0x13
 2742 1247 CE0C0000 		.4byte	.LASF254
 2743 124b 1D       		.byte	0x1d
 2744 124c 4C02     		.2byte	0x24c
 2745 124e AE100000 		.4byte	0x10ae
 2746 1252 22       		.uleb128 0x22
 2747 1253 07       		.byte	0x7
 2748 1254 01       		.byte	0x1
 2749 1255 5E000000 		.4byte	0x5e
 2750 1259 1E       		.byte	0x1e
 2751 125a 13       		.byte	0x13
 2752 125b 78120000 		.4byte	0x1278
 2753 125f 23       		.uleb128 0x23
 2754 1260 BD040000 		.4byte	.LASF255
 2755 1264 00       		.byte	0
 2756 1265 23       		.uleb128 0x23
 2757 1266 D50C0000 		.4byte	.LASF256
 2758 126a 01       		.byte	0x1
 2759 126b 23       		.uleb128 0x23
 2760 126c 33060000 		.4byte	.LASF257
 2761 1270 02       		.byte	0x2
 2762 1271 23       		.uleb128 0x23
 2763 1272 E9000000 		.4byte	.LASF258
 2764 1276 03       		.byte	0x3
 2765 1277 00       		.byte	0
 2766 1278 03       		.uleb128 0x3
 2767 1279 CB000000 		.4byte	.LASF259
 2768 127d 1E       		.byte	0x1e
 2769 127e 18       		.byte	0x18
 2770 127f 52120000 		.4byte	0x1252
 2771 1283 15       		.uleb128 0x15
 2772 1284 0A       		.byte	0xa
 2773 1285 1E       		.byte	0x1e
 2774 1286 1A       		.byte	0x1a
 2775 1287 D2120000 		.4byte	0x12d2
 2776 128b 08       		.uleb128 0x8
 2777 128c 24070000 		.4byte	.LASF260
 2778 1290 1E       		.byte	0x1e
 2779 1291 1B       		.byte	0x1b
ARM GAS  C:\Users\Pearl\AppData\Local\Temp\cc4hQ0L2.s 			page 50


 2780 1292 C4000000 		.4byte	0xc4
 2781 1296 00       		.byte	0
 2782 1297 08       		.uleb128 0x8
 2783 1298 2D070000 		.4byte	.LASF261
 2784 129c 1E       		.byte	0x1e
 2785 129d 1C       		.byte	0x1c
 2786 129e C4000000 		.4byte	0xc4
 2787 12a2 02       		.byte	0x2
 2788 12a3 08       		.uleb128 0x8
 2789 12a4 36070000 		.4byte	.LASF262
 2790 12a8 1E       		.byte	0x1e
 2791 12a9 1D       		.byte	0x1d
 2792 12aa C4000000 		.4byte	0xc4
 2793 12ae 04       		.byte	0x4
 2794 12af 08       		.uleb128 0x8
 2795 12b0 3F070000 		.4byte	.LASF263
 2796 12b4 1E       		.byte	0x1e
 2797 12b5 1E       		.byte	0x1e
 2798 12b6 C4000000 		.4byte	0xc4
 2799 12ba 06       		.byte	0x6
 2800 12bb 09       		.uleb128 0x9
 2801 12bc 733100   		.ascii	"s1\000"
 2802 12bf 1E       		.byte	0x1e
 2803 12c0 1F       		.byte	0x1f
 2804 12c1 B4000000 		.4byte	0xb4
 2805 12c5 08       		.byte	0x8
 2806 12c6 09       		.uleb128 0x9
 2807 12c7 733200   		.ascii	"s2\000"
 2808 12ca 1E       		.byte	0x1e
 2809 12cb 20       		.byte	0x20
 2810 12cc B4000000 		.4byte	0xb4
 2811 12d0 09       		.byte	0x9
 2812 12d1 00       		.byte	0
 2813 12d2 03       		.uleb128 0x3
 2814 12d3 04040000 		.4byte	.LASF264
 2815 12d7 1E       		.byte	0x1e
 2816 12d8 21       		.byte	0x21
 2817 12d9 83120000 		.4byte	0x1283
 2818 12dd 11       		.uleb128 0x11
 2819 12de B4000000 		.4byte	0xb4
 2820 12e2 ED120000 		.4byte	0x12ed
 2821 12e6 12       		.uleb128 0x12
 2822 12e7 37000000 		.4byte	0x37
 2823 12eb 11       		.byte	0x11
 2824 12ec 00       		.byte	0
 2825 12ed 24       		.uleb128 0x24
 2826 12ee 40060000 		.4byte	.LASF243
 2827 12f2 01       		.byte	0x1
 2828 12f3 0C       		.byte	0xc
 2829 12f4 DD120000 		.4byte	0x12dd
 2830 12f8 05       		.uleb128 0x5
 2831 12f9 03       		.byte	0x3
 2832 12fa 00000000 		.4byte	rxbuf
 2833 12fe 24       		.uleb128 0x24
 2834 12ff 1D070000 		.4byte	.LASF265
 2835 1303 01       		.byte	0x1
 2836 1304 0D       		.byte	0xd
ARM GAS  C:\Users\Pearl\AppData\Local\Temp\cc4hQ0L2.s 			page 51


 2837 1305 D2120000 		.4byte	0x12d2
 2838 1309 05       		.uleb128 0x5
 2839 130a 03       		.byte	0x3
 2840 130b 00000000 		.4byte	RC_Ctl
 2841 130f 24       		.uleb128 0x24
 2842 1310 83050000 		.4byte	.LASF266
 2843 1314 01       		.byte	0x1
 2844 1315 0F       		.byte	0xf
 2845 1316 4B020000 		.4byte	0x24b
 2846 131a 05       		.uleb128 0x5
 2847 131b 03       		.byte	0x3
 2848 131c 00000000 		.4byte	uart_dbus_thread_handler
 2849 1320 24       		.uleb128 0x24
 2850 1321 75090000 		.4byte	.LASF267
 2851 1325 01       		.byte	0x1
 2852 1326 11       		.byte	0x11
 2853 1327 78120000 		.4byte	0x1278
 2854 132b 05       		.uleb128 0x5
 2855 132c 03       		.byte	0x3
 2856 132d 00000000 		.4byte	rc_state
 2857 1331 24       		.uleb128 0x24
 2858 1332 E1030000 		.4byte	.LASF268
 2859 1336 01       		.byte	0x1
 2860 1337 2E       		.byte	0x2e
 2861 1338 23120000 		.4byte	0x1223
 2862 133c 05       		.uleb128 0x5
 2863 133d 03       		.byte	0x3
 2864 133e 00000000 		.4byte	uart_cfg
 2865 1342 11       		.uleb128 0x11
 2866 1343 10080000 		.4byte	0x810
 2867 1347 52130000 		.4byte	0x1352
 2868 134b 12       		.uleb128 0x12
 2869 134c 37000000 		.4byte	0x37
 2870 1350 58       		.byte	0x58
 2871 1351 00       		.byte	0
 2872 1352 24       		.uleb128 0x24
 2873 1353 CC0B0000 		.4byte	.LASF269
 2874 1357 01       		.byte	0x1
 2875 1358 4C       		.byte	0x4c
 2876 1359 42130000 		.4byte	0x1342
 2877 135d 05       		.uleb128 0x5
 2878 135e 03       		.byte	0x3
 2879 135f 00000000 		.4byte	uart_dbus_thread_wa
 2880 1363 25       		.uleb128 0x25
 2881 1364 EE060000 		.4byte	.LASF301
 2882 1368 01       		.byte	0x1
 2883 1369 79       		.byte	0x79
 2884 136a 00000000 		.4byte	.LFB258
 2885 136e 4C000000 		.4byte	.LFE258-.LFB258
 2886 1372 01       		.uleb128 0x1
 2887 1373 9C       		.byte	0x9c
 2888 1374 DE130000 		.4byte	0x13de
 2889 1378 26       		.uleb128 0x26
 2890 1379 B8150000 		.4byte	0x15b8
 2891 137d 02000000 		.4byte	.LBB138
 2892 1381 18000000 		.4byte	.Ldebug_ranges0+0x18
 2893 1385 01       		.byte	0x1
ARM GAS  C:\Users\Pearl\AppData\Local\Temp\cc4hQ0L2.s 			page 52


 2894 1386 7B       		.byte	0x7b
 2895 1387 27       		.uleb128 0x27
 2896 1388 1C000000 		.4byte	.LVL19
 2897 138c 7B170000 		.4byte	0x177b
 2898 1390 A4130000 		.4byte	0x13a4
 2899 1394 28       		.uleb128 0x28
 2900 1395 01       		.uleb128 0x1
 2901 1396 50       		.byte	0x50
 2902 1397 02       		.uleb128 0x2
 2903 1398 75       		.byte	0x75
 2904 1399 00       		.sleb128 0
 2905 139a 28       		.uleb128 0x28
 2906 139b 01       		.uleb128 0x1
 2907 139c 51       		.byte	0x51
 2908 139d 05       		.uleb128 0x5
 2909 139e 03       		.byte	0x3
 2910 139f 00000000 		.4byte	.LANCHOR4
 2911 13a3 00       		.byte	0
 2912 13a4 29       		.uleb128 0x29
 2913 13a5 22000000 		.4byte	.LVL20
 2914 13a9 87170000 		.4byte	0x1787
 2915 13ad 2A       		.uleb128 0x2a
 2916 13ae 32000000 		.4byte	.LVL21
 2917 13b2 93170000 		.4byte	0x1793
 2918 13b6 28       		.uleb128 0x28
 2919 13b7 01       		.uleb128 0x1
 2920 13b8 50       		.byte	0x50
 2921 13b9 05       		.uleb128 0x5
 2922 13ba 03       		.byte	0x3
 2923 13bb 00000000 		.4byte	.LANCHOR5
 2924 13bf 28       		.uleb128 0x28
 2925 13c0 01       		.uleb128 0x1
 2926 13c1 51       		.byte	0x51
 2927 13c2 03       		.uleb128 0x3
 2928 13c3 0A       		.byte	0xa
 2929 13c4 C802     		.2byte	0x2c8
 2930 13c6 28       		.uleb128 0x28
 2931 13c7 01       		.uleb128 0x1
 2932 13c8 52       		.byte	0x52
 2933 13c9 02       		.uleb128 0x2
 2934 13ca 08       		.byte	0x8
 2935 13cb 87       		.byte	0x87
 2936 13cc 28       		.uleb128 0x28
 2937 13cd 01       		.uleb128 0x1
 2938 13ce 53       		.byte	0x53
 2939 13cf 05       		.uleb128 0x5
 2940 13d0 03       		.byte	0x3
 2941 13d1 00000000 		.4byte	uart_dbus_thread
 2942 13d5 28       		.uleb128 0x28
 2943 13d6 02       		.uleb128 0x2
 2944 13d7 7D       		.byte	0x7d
 2945 13d8 00       		.sleb128 0
 2946 13d9 02       		.uleb128 0x2
 2947 13da 74       		.byte	0x74
 2948 13db 00       		.sleb128 0
 2949 13dc 00       		.byte	0
 2950 13dd 00       		.byte	0
ARM GAS  C:\Users\Pearl\AppData\Local\Temp\cc4hQ0L2.s 			page 53


 2951 13de 2B       		.uleb128 0x2b
 2952 13df E90C0000 		.4byte	.LASF273
 2953 13e3 01       		.byte	0x1
 2954 13e4 4D       		.byte	0x4d
 2955 13e5 00000000 		.4byte	.LFB257
 2956 13e9 E4000000 		.4byte	.LFE257-.LFB257
 2957 13ed 01       		.uleb128 0x1
 2958 13ee 9C       		.byte	0x9c
 2959 13ef B8150000 		.4byte	0x15b8
 2960 13f3 2C       		.uleb128 0x2c
 2961 13f4 7000     		.ascii	"p\000"
 2962 13f6 01       		.byte	0x1
 2963 13f7 4D       		.byte	0x4d
 2964 13f8 33030000 		.4byte	0x333
 2965 13fc 00000000 		.4byte	.LLST0
 2966 1400 24       		.uleb128 0x24
 2967 1401 F0080000 		.4byte	.LASF270
 2968 1405 01       		.byte	0x1
 2969 1406 52       		.byte	0x52
 2970 1407 2B010000 		.4byte	0x12b
 2971 140b 01       		.uleb128 0x1
 2972 140c 53       		.byte	0x53
 2973 140d 2D       		.uleb128 0x2d
 2974 140e 4F070000 		.4byte	.LASF271
 2975 1412 01       		.byte	0x1
 2976 1413 53       		.byte	0x53
 2977 1414 4F040000 		.4byte	0x44f
 2978 1418 21000000 		.4byte	.LLST1
 2979 141c 2E       		.uleb128 0x2e
 2980 141d 6A070000 		.4byte	.LASF272
 2981 1421 01       		.byte	0x1
 2982 1422 54       		.byte	0x54
 2983 1423 E4000000 		.4byte	0xe4
 2984 1427 00       		.byte	0
 2985 1428 2F       		.uleb128 0x2f
 2986 1429 C0160000 		.4byte	0x16c0
 2987 142d 04000000 		.4byte	.LBB104
 2988 1431 00000000 		.4byte	.Ldebug_ranges0+0
 2989 1435 01       		.byte	0x1
 2990 1436 50       		.byte	0x50
 2991 1437 45140000 		.4byte	0x1445
 2992 143b 30       		.uleb128 0x30
 2993 143c CC160000 		.4byte	0x16cc
 2994 1440 4F000000 		.4byte	.LLST2
 2995 1444 00       		.byte	0
 2996 1445 31       		.uleb128 0x31
 2997 1446 34170000 		.4byte	0x1734
 2998 144a 3A000000 		.4byte	.LBB108
 2999 144e 08000000 		.4byte	.LBE108-.LBB108
 3000 1452 01       		.byte	0x1
 3001 1453 5B       		.byte	0x5b
 3002 1454 84140000 		.4byte	0x1484
 3003 1458 32       		.uleb128 0x32
 3004 1459 58170000 		.4byte	0x1758
 3005 145d 3A000000 		.4byte	.LBB109
 3006 1461 08000000 		.4byte	.LBE109-.LBB109
 3007 1465 12       		.byte	0x12
ARM GAS  C:\Users\Pearl\AppData\Local\Temp\cc4hQ0L2.s 			page 54


 3008 1466 6301     		.2byte	0x163
 3009 1468 32       		.uleb128 0x32
 3010 1469 61170000 		.4byte	0x1761
 3011 146d 3A000000 		.4byte	.LBB110
 3012 1471 08000000 		.4byte	.LBE110-.LBB110
 3013 1475 0F       		.byte	0xf
 3014 1476 5A02     		.2byte	0x25a
 3015 1478 30       		.uleb128 0x30
 3016 1479 6E170000 		.4byte	0x176e
 3017 147d 67000000 		.4byte	.LLST3
 3018 1481 00       		.byte	0
 3019 1482 00       		.byte	0
 3020 1483 00       		.byte	0
 3021 1484 31       		.uleb128 0x31
 3022 1485 04170000 		.4byte	0x1704
 3023 1489 4C000000 		.4byte	.LBB112
 3024 148d 04000000 		.4byte	.LBE112-.LBB112
 3025 1491 01       		.byte	0x1
 3026 1492 5D       		.byte	0x5d
 3027 1493 D2140000 		.4byte	0x14d2
 3028 1497 33       		.uleb128 0x33
 3029 1498 4C000000 		.4byte	.LBB113
 3030 149c 04000000 		.4byte	.LBE113-.LBB113
 3031 14a0 34       		.uleb128 0x34
 3032 14a1 11170000 		.4byte	0x1711
 3033 14a5 32       		.uleb128 0x32
 3034 14a6 4F170000 		.4byte	0x174f
 3035 14aa 4C000000 		.4byte	.LBB114
 3036 14ae 04000000 		.4byte	.LBE114-.LBB114
 3037 14b2 12       		.byte	0x12
 3038 14b3 7A01     		.2byte	0x17a
 3039 14b5 32       		.uleb128 0x32
 3040 14b6 61170000 		.4byte	0x1761
 3041 14ba 4C000000 		.4byte	.LBB115
 3042 14be 04000000 		.4byte	.LBE115-.LBB115
 3043 14c2 0F       		.byte	0xf
 3044 14c3 6D02     		.2byte	0x26d
 3045 14c5 30       		.uleb128 0x30
 3046 14c6 6E170000 		.4byte	0x176e
 3047 14ca 7C000000 		.4byte	.LLST4
 3048 14ce 00       		.byte	0
 3049 14cf 00       		.byte	0
 3050 14d0 00       		.byte	0
 3051 14d1 00       		.byte	0
 3052 14d2 31       		.uleb128 0x31
 3053 14d3 34170000 		.4byte	0x1734
 3054 14d7 58000000 		.4byte	.LBB117
 3055 14db 04000000 		.4byte	.LBE117-.LBB117
 3056 14df 01       		.byte	0x1
 3057 14e0 68       		.byte	0x68
 3058 14e1 11150000 		.4byte	0x1511
 3059 14e5 32       		.uleb128 0x32
 3060 14e6 58170000 		.4byte	0x1758
 3061 14ea 58000000 		.4byte	.LBB118
 3062 14ee 04000000 		.4byte	.LBE118-.LBB118
 3063 14f2 12       		.byte	0x12
 3064 14f3 6301     		.2byte	0x163
ARM GAS  C:\Users\Pearl\AppData\Local\Temp\cc4hQ0L2.s 			page 55


 3065 14f5 32       		.uleb128 0x32
 3066 14f6 61170000 		.4byte	0x1761
 3067 14fa 58000000 		.4byte	.LBB119
 3068 14fe 04000000 		.4byte	.LBE119-.LBB119
 3069 1502 0F       		.byte	0xf
 3070 1503 5A02     		.2byte	0x25a
 3071 1505 30       		.uleb128 0x30
 3072 1506 6E170000 		.4byte	0x176e
 3073 150a 90000000 		.4byte	.LLST5
 3074 150e 00       		.byte	0
 3075 150f 00       		.byte	0
 3076 1510 00       		.byte	0
 3077 1511 35       		.uleb128 0x35
 3078 1512 B8160000 		.4byte	0x16b8
 3079 1516 5C000000 		.4byte	.LBB121
 3080 151a 60000000 		.4byte	.LBE121-.LBB121
 3081 151e 01       		.byte	0x1
 3082 151f 69       		.byte	0x69
 3083 1520 31       		.uleb128 0x31
 3084 1521 04170000 		.4byte	0x1704
 3085 1525 BC000000 		.4byte	.LBB123
 3086 1529 08000000 		.4byte	.LBE123-.LBB123
 3087 152d 01       		.byte	0x1
 3088 152e 6A       		.byte	0x6a
 3089 152f 6E150000 		.4byte	0x156e
 3090 1533 33       		.uleb128 0x33
 3091 1534 BC000000 		.4byte	.LBB124
 3092 1538 08000000 		.4byte	.LBE124-.LBB124
 3093 153c 34       		.uleb128 0x34
 3094 153d 11170000 		.4byte	0x1711
 3095 1541 32       		.uleb128 0x32
 3096 1542 4F170000 		.4byte	0x174f
 3097 1546 BC000000 		.4byte	.LBB125
 3098 154a 08000000 		.4byte	.LBE125-.LBB125
 3099 154e 12       		.byte	0x12
 3100 154f 7A01     		.2byte	0x17a
 3101 1551 32       		.uleb128 0x32
 3102 1552 61170000 		.4byte	0x1761
 3103 1556 BC000000 		.4byte	.LBB126
 3104 155a 08000000 		.4byte	.LBE126-.LBB126
 3105 155e 0F       		.byte	0xf
 3106 155f 6D02     		.2byte	0x26d
 3107 1561 30       		.uleb128 0x30
 3108 1562 6E170000 		.4byte	0x176e
 3109 1566 A5000000 		.4byte	.LLST6
 3110 156a 00       		.byte	0
 3111 156b 00       		.byte	0
 3112 156c 00       		.byte	0
 3113 156d 00       		.byte	0
 3114 156e 27       		.uleb128 0x27
 3115 156f 30000000 		.4byte	.LVL4
 3116 1573 9E170000 		.4byte	0x179e
 3117 1577 82150000 		.4byte	0x1582
 3118 157b 28       		.uleb128 0x28
 3119 157c 01       		.uleb128 0x1
 3120 157d 50       		.byte	0x50
 3121 157e 02       		.uleb128 0x2
ARM GAS  C:\Users\Pearl\AppData\Local\Temp\cc4hQ0L2.s 			page 56


 3122 157f 74       		.byte	0x74
 3123 1580 00       		.sleb128 0
 3124 1581 00       		.byte	0
 3125 1582 27       		.uleb128 0x27
 3126 1583 3A000000 		.4byte	.LVL5
 3127 1587 AA170000 		.4byte	0x17aa
 3128 158b A1150000 		.4byte	0x15a1
 3129 158f 28       		.uleb128 0x28
 3130 1590 01       		.uleb128 0x1
 3131 1591 50       		.byte	0x50
 3132 1592 02       		.uleb128 0x2
 3133 1593 74       		.byte	0x74
 3134 1594 00       		.sleb128 0
 3135 1595 28       		.uleb128 0x28
 3136 1596 01       		.uleb128 0x1
 3137 1597 51       		.byte	0x51
 3138 1598 01       		.uleb128 0x1
 3139 1599 42       		.byte	0x42
 3140 159a 28       		.uleb128 0x28
 3141 159b 01       		.uleb128 0x1
 3142 159c 52       		.byte	0x52
 3143 159d 02       		.uleb128 0x2
 3144 159e 77       		.byte	0x77
 3145 159f 00       		.sleb128 0
 3146 15a0 00       		.byte	0
 3147 15a1 2A       		.uleb128 0x2a
 3148 15a2 4C000000 		.4byte	.LVL7
 3149 15a6 B6170000 		.4byte	0x17b6
 3150 15aa 28       		.uleb128 0x28
 3151 15ab 01       		.uleb128 0x1
 3152 15ac 50       		.byte	0x50
 3153 15ad 02       		.uleb128 0x2
 3154 15ae 76       		.byte	0x76
 3155 15af 00       		.sleb128 0
 3156 15b0 28       		.uleb128 0x28
 3157 15b1 01       		.uleb128 0x1
 3158 15b2 51       		.byte	0x51
 3159 15b3 02       		.uleb128 0x2
 3160 15b4 09       		.byte	0x9
 3161 15b5 FF       		.byte	0xff
 3162 15b6 00       		.byte	0
 3163 15b7 00       		.byte	0
 3164 15b8 36       		.uleb128 0x36
 3165 15b9 4C060000 		.4byte	.LASF276
 3166 15bd 01       		.byte	0x1
 3167 15be 3F       		.byte	0x3f
 3168 15bf 01       		.byte	0x1
 3169 15c0 37       		.uleb128 0x37
 3170 15c1 BF030000 		.4byte	.LASF302
 3171 15c5 01       		.byte	0x1
 3172 15c6 3A       		.byte	0x3a
 3173 15c7 D5150000 		.4byte	0x15d5
 3174 15cb 00000000 		.4byte	.LFB255
 3175 15cf 08000000 		.4byte	.LFE255-.LFB255
 3176 15d3 01       		.uleb128 0x1
 3177 15d4 9C       		.byte	0x9c
 3178 15d5 0C       		.uleb128 0xc
ARM GAS  C:\Users\Pearl\AppData\Local\Temp\cc4hQ0L2.s 			page 57


 3179 15d6 04       		.byte	0x4
 3180 15d7 D2120000 		.4byte	0x12d2
 3181 15db 2B       		.uleb128 0x2b
 3182 15dc F50B0000 		.4byte	.LASF274
 3183 15e0 01       		.byte	0x1
 3184 15e1 23       		.byte	0x23
 3185 15e2 00000000 		.4byte	.LFB254
 3186 15e6 1C000000 		.4byte	.LFE254-.LFB254
 3187 15ea 01       		.uleb128 0x1
 3188 15eb 9C       		.byte	0x9c
 3189 15ec B8160000 		.4byte	0x16b8
 3190 15f0 38       		.uleb128 0x38
 3191 15f1 D9070000 		.4byte	.LASF275
 3192 15f5 01       		.byte	0x1
 3193 15f6 23       		.byte	0x23
 3194 15f7 5A110000 		.4byte	0x115a
 3195 15fb B9000000 		.4byte	.LLST7
 3196 15ff 31       		.uleb128 0x31
 3197 1600 FB160000 		.4byte	0x16fb
 3198 1604 02000000 		.4byte	.LBB128
 3199 1608 06000000 		.4byte	.LBE128-.LBB128
 3200 160c 01       		.byte	0x1
 3201 160d 25       		.byte	0x25
 3202 160e 4F160000 		.4byte	0x164f
 3203 1612 32       		.uleb128 0x32
 3204 1613 46170000 		.4byte	0x1746
 3205 1617 02000000 		.4byte	.LBB129
 3206 161b 06000000 		.4byte	.LBE129-.LBB129
 3207 161f 12       		.byte	0x12
 3208 1620 8B01     		.2byte	0x18b
 3209 1622 32       		.uleb128 0x32
 3210 1623 58170000 		.4byte	0x1758
 3211 1627 02000000 		.4byte	.LBB130
 3212 162b 06000000 		.4byte	.LBE130-.LBB130
 3213 162f 0F       		.byte	0xf
 3214 1630 7B02     		.2byte	0x27b
 3215 1632 32       		.uleb128 0x32
 3216 1633 61170000 		.4byte	0x1761
 3217 1637 02000000 		.4byte	.LBB131
 3218 163b 06000000 		.4byte	.LBE131-.LBB131
 3219 163f 0F       		.byte	0xf
 3220 1640 5A02     		.2byte	0x25a
 3221 1642 30       		.uleb128 0x30
 3222 1643 6E170000 		.4byte	0x176e
 3223 1647 DA000000 		.4byte	.LLST8
 3224 164b 00       		.byte	0
 3225 164c 00       		.byte	0
 3226 164d 00       		.byte	0
 3227 164e 00       		.byte	0
 3228 164f 31       		.uleb128 0x31
 3229 1650 F2160000 		.4byte	0x16f2
 3230 1654 10000000 		.4byte	.LBB133
 3231 1658 06000000 		.4byte	.LBE133-.LBB133
 3232 165c 01       		.byte	0x1
 3233 165d 27       		.byte	0x27
 3234 165e 9F160000 		.4byte	0x169f
 3235 1662 32       		.uleb128 0x32
ARM GAS  C:\Users\Pearl\AppData\Local\Temp\cc4hQ0L2.s 			page 58


 3236 1663 3D170000 		.4byte	0x173d
 3237 1667 10000000 		.4byte	.LBB134
 3238 166b 06000000 		.4byte	.LBE134-.LBB134
 3239 166f 12       		.byte	0x12
 3240 1670 A101     		.2byte	0x1a1
 3241 1672 32       		.uleb128 0x32
 3242 1673 4F170000 		.4byte	0x174f
 3243 1677 10000000 		.4byte	.LBB135
 3244 167b 06000000 		.4byte	.LBE135-.LBB135
 3245 167f 0F       		.byte	0xf
 3246 1680 8602     		.2byte	0x286
 3247 1682 32       		.uleb128 0x32
 3248 1683 61170000 		.4byte	0x1761
 3249 1687 10000000 		.4byte	.LBB136
 3250 168b 06000000 		.4byte	.LBE136-.LBB136
 3251 168f 0F       		.byte	0xf
 3252 1690 6D02     		.2byte	0x26d
 3253 1692 30       		.uleb128 0x30
 3254 1693 6E170000 		.4byte	0x176e
 3255 1697 EF000000 		.4byte	.LLST9
 3256 169b 00       		.byte	0
 3257 169c 00       		.byte	0
 3258 169d 00       		.byte	0
 3259 169e 00       		.byte	0
 3260 169f 2A       		.uleb128 0x2a
 3261 16a0 10000000 		.4byte	.LVL17
 3262 16a4 C1170000 		.4byte	0x17c1
 3263 16a8 28       		.uleb128 0x28
 3264 16a9 01       		.uleb128 0x1
 3265 16aa 50       		.byte	0x50
 3266 16ab 05       		.uleb128 0x5
 3267 16ac 03       		.byte	0x3
 3268 16ad 00000000 		.4byte	.LANCHOR1
 3269 16b1 28       		.uleb128 0x28
 3270 16b2 01       		.uleb128 0x1
 3271 16b3 51       		.byte	0x51
 3272 16b4 01       		.uleb128 0x1
 3273 16b5 30       		.byte	0x30
 3274 16b6 00       		.byte	0
 3275 16b7 00       		.byte	0
 3276 16b8 36       		.uleb128 0x36
 3277 16b9 21020000 		.4byte	.LASF277
 3278 16bd 01       		.byte	0x1
 3279 16be 16       		.byte	0x16
 3280 16bf 01       		.byte	0x1
 3281 16c0 39       		.uleb128 0x39
 3282 16c1 250D0000 		.4byte	.LASF282
 3283 16c5 02       		.byte	0x2
 3284 16c6 85       		.byte	0x85
 3285 16c7 03       		.byte	0x3
 3286 16c8 D8160000 		.4byte	0x16d8
 3287 16cc 3A       		.uleb128 0x3a
 3288 16cd 0C0B0000 		.4byte	.LASF35
 3289 16d1 02       		.byte	0x2
 3290 16d2 85       		.byte	0x85
 3291 16d3 7F090000 		.4byte	0x97f
 3292 16d7 00       		.byte	0
ARM GAS  C:\Users\Pearl\AppData\Local\Temp\cc4hQ0L2.s 			page 59


 3293 16d8 3B       		.uleb128 0x3b
 3294 16d9 0F0D0000 		.4byte	.LASF278
 3295 16dd 1F       		.byte	0x1f
 3296 16de 5901     		.2byte	0x159
 3297 16e0 5F0B0000 		.4byte	0xb5f
 3298 16e4 03       		.byte	0x3
 3299 16e5 3B       		.uleb128 0x3b
 3300 16e6 8B0B0000 		.4byte	.LASF279
 3301 16ea 1F       		.byte	0x1f
 3302 16eb 1001     		.2byte	0x110
 3303 16ed 56020000 		.4byte	0x256
 3304 16f1 03       		.byte	0x3
 3305 16f2 3C       		.uleb128 0x3c
 3306 16f3 F0020000 		.4byte	.LASF280
 3307 16f7 12       		.byte	0x12
 3308 16f8 9D01     		.2byte	0x19d
 3309 16fa 03       		.byte	0x3
 3310 16fb 3C       		.uleb128 0x3c
 3311 16fc E0010000 		.4byte	.LASF281
 3312 1700 12       		.byte	0x12
 3313 1701 8901     		.2byte	0x189
 3314 1703 03       		.byte	0x3
 3315 1704 3D       		.uleb128 0x3d
 3316 1705 4D0D0000 		.4byte	.LASF283
 3317 1709 12       		.byte	0x12
 3318 170a 6D01     		.2byte	0x16d
 3319 170c 03       		.byte	0x3
 3320 170d 1F170000 		.4byte	0x171f
 3321 1711 3E       		.uleb128 0x3e
 3322 1712 D6000000 		.4byte	.LASF303
 3323 1716 2F170000 		.4byte	0x172f
 3324 171a 4D0D0000 		.4byte	.LASF283
 3325 171e 00       		.byte	0
 3326 171f 11       		.uleb128 0x11
 3327 1720 91090000 		.4byte	0x991
 3328 1724 2F170000 		.4byte	0x172f
 3329 1728 12       		.uleb128 0x12
 3330 1729 37000000 		.4byte	0x37
 3331 172d 0B       		.byte	0xb
 3332 172e 00       		.byte	0
 3333 172f 05       		.uleb128 0x5
 3334 1730 1F170000 		.4byte	0x171f
 3335 1734 3C       		.uleb128 0x3c
 3336 1735 FE040000 		.4byte	.LASF284
 3337 1739 12       		.byte	0x12
 3338 173a 6101     		.2byte	0x161
 3339 173c 03       		.byte	0x3
 3340 173d 3C       		.uleb128 0x3c
 3341 173e 60090000 		.4byte	.LASF285
 3342 1742 0F       		.byte	0xf
 3343 1743 8402     		.2byte	0x284
 3344 1745 03       		.byte	0x3
 3345 1746 3C       		.uleb128 0x3c
 3346 1747 91060000 		.4byte	.LASF286
 3347 174b 0F       		.byte	0xf
 3348 174c 7902     		.2byte	0x279
 3349 174e 03       		.byte	0x3
ARM GAS  C:\Users\Pearl\AppData\Local\Temp\cc4hQ0L2.s 			page 60


 3350 174f 3C       		.uleb128 0x3c
 3351 1750 CF010000 		.4byte	.LASF287
 3352 1754 0F       		.byte	0xf
 3353 1755 6A02     		.2byte	0x26a
 3354 1757 03       		.byte	0x3
 3355 1758 3C       		.uleb128 0x3c
 3356 1759 110B0000 		.4byte	.LASF288
 3357 175d 0F       		.byte	0xf
 3358 175e 5202     		.2byte	0x252
 3359 1760 03       		.byte	0x3
 3360 1761 3D       		.uleb128 0x3d
 3361 1762 900A0000 		.4byte	.LASF289
 3362 1766 03       		.byte	0x3
 3363 1767 EB01     		.2byte	0x1eb
 3364 1769 03       		.byte	0x3
 3365 176a 7B170000 		.4byte	0x177b
 3366 176e 3F       		.uleb128 0x3f
 3367 176f 250A0000 		.4byte	.LASF290
 3368 1773 03       		.byte	0x3
 3369 1774 EB01     		.2byte	0x1eb
 3370 1776 E4000000 		.4byte	0xe4
 3371 177a 00       		.byte	0
 3372 177b 40       		.uleb128 0x40
 3373 177c 77000000 		.4byte	.LASF291
 3374 1780 77000000 		.4byte	.LASF291
 3375 1784 1C       		.byte	0x1c
 3376 1785 8B01     		.2byte	0x18b
 3377 1787 40       		.uleb128 0x40
 3378 1788 97000000 		.4byte	.LASF292
 3379 178c 97000000 		.4byte	.LASF292
 3380 1790 17       		.byte	0x17
 3381 1791 EB01     		.2byte	0x1eb
 3382 1793 41       		.uleb128 0x41
 3383 1794 B7060000 		.4byte	.LASF293
 3384 1798 B7060000 		.4byte	.LASF293
 3385 179c 1F       		.byte	0x1f
 3386 179d E7       		.byte	0xe7
 3387 179e 40       		.uleb128 0x40
 3388 179f AA030000 		.4byte	.LASF294
 3389 17a3 AA030000 		.4byte	.LASF294
 3390 17a7 1C       		.byte	0x1c
 3391 17a8 9301     		.2byte	0x193
 3392 17aa 40       		.uleb128 0x40
 3393 17ab 11010000 		.4byte	.LASF295
 3394 17af 11010000 		.4byte	.LASF295
 3395 17b3 1C       		.byte	0x1c
 3396 17b4 9101     		.2byte	0x191
 3397 17b6 41       		.uleb128 0x41
 3398 17b7 3E020000 		.4byte	.LASF296
 3399 17bb 3E020000 		.4byte	.LASF296
 3400 17bf 1F       		.byte	0x1f
 3401 17c0 F6       		.byte	0xf6
 3402 17c1 41       		.uleb128 0x41
 3403 17c2 81000000 		.4byte	.LASF297
 3404 17c6 81000000 		.4byte	.LASF297
 3405 17ca 1F       		.byte	0x1f
 3406 17cb F7       		.byte	0xf7
ARM GAS  C:\Users\Pearl\AppData\Local\Temp\cc4hQ0L2.s 			page 61


 3407 17cc 00       		.byte	0
 3408              		.section	.debug_abbrev,"",%progbits
 3409              	.Ldebug_abbrev0:
 3410 0000 01       		.uleb128 0x1
 3411 0001 11       		.uleb128 0x11
 3412 0002 01       		.byte	0x1
 3413 0003 25       		.uleb128 0x25
 3414 0004 0E       		.uleb128 0xe
 3415 0005 13       		.uleb128 0x13
 3416 0006 0B       		.uleb128 0xb
 3417 0007 03       		.uleb128 0x3
 3418 0008 0E       		.uleb128 0xe
 3419 0009 1B       		.uleb128 0x1b
 3420 000a 0E       		.uleb128 0xe
 3421 000b 55       		.uleb128 0x55
 3422 000c 17       		.uleb128 0x17
 3423 000d 11       		.uleb128 0x11
 3424 000e 01       		.uleb128 0x1
 3425 000f 10       		.uleb128 0x10
 3426 0010 17       		.uleb128 0x17
 3427 0011 00       		.byte	0
 3428 0012 00       		.byte	0
 3429 0013 02       		.uleb128 0x2
 3430 0014 24       		.uleb128 0x24
 3431 0015 00       		.byte	0
 3432 0016 0B       		.uleb128 0xb
 3433 0017 0B       		.uleb128 0xb
 3434 0018 3E       		.uleb128 0x3e
 3435 0019 0B       		.uleb128 0xb
 3436 001a 03       		.uleb128 0x3
 3437 001b 08       		.uleb128 0x8
 3438 001c 00       		.byte	0
 3439 001d 00       		.byte	0
 3440 001e 03       		.uleb128 0x3
 3441 001f 16       		.uleb128 0x16
 3442 0020 00       		.byte	0
 3443 0021 03       		.uleb128 0x3
 3444 0022 0E       		.uleb128 0xe
 3445 0023 3A       		.uleb128 0x3a
 3446 0024 0B       		.uleb128 0xb
 3447 0025 3B       		.uleb128 0x3b
 3448 0026 0B       		.uleb128 0xb
 3449 0027 49       		.uleb128 0x49
 3450 0028 13       		.uleb128 0x13
 3451 0029 00       		.byte	0
 3452 002a 00       		.byte	0
 3453 002b 04       		.uleb128 0x4
 3454 002c 24       		.uleb128 0x24
 3455 002d 00       		.byte	0
 3456 002e 0B       		.uleb128 0xb
 3457 002f 0B       		.uleb128 0xb
 3458 0030 3E       		.uleb128 0x3e
 3459 0031 0B       		.uleb128 0xb
 3460 0032 03       		.uleb128 0x3
 3461 0033 0E       		.uleb128 0xe
 3462 0034 00       		.byte	0
 3463 0035 00       		.byte	0
ARM GAS  C:\Users\Pearl\AppData\Local\Temp\cc4hQ0L2.s 			page 62


 3464 0036 05       		.uleb128 0x5
 3465 0037 26       		.uleb128 0x26
 3466 0038 00       		.byte	0
 3467 0039 49       		.uleb128 0x49
 3468 003a 13       		.uleb128 0x13
 3469 003b 00       		.byte	0
 3470 003c 00       		.byte	0
 3471 003d 06       		.uleb128 0x6
 3472 003e 35       		.uleb128 0x35
 3473 003f 00       		.byte	0
 3474 0040 49       		.uleb128 0x49
 3475 0041 13       		.uleb128 0x13
 3476 0042 00       		.byte	0
 3477 0043 00       		.byte	0
 3478 0044 07       		.uleb128 0x7
 3479 0045 13       		.uleb128 0x13
 3480 0046 01       		.byte	0x1
 3481 0047 03       		.uleb128 0x3
 3482 0048 0E       		.uleb128 0xe
 3483 0049 0B       		.uleb128 0xb
 3484 004a 0B       		.uleb128 0xb
 3485 004b 3A       		.uleb128 0x3a
 3486 004c 0B       		.uleb128 0xb
 3487 004d 3B       		.uleb128 0x3b
 3488 004e 0B       		.uleb128 0xb
 3489 004f 01       		.uleb128 0x1
 3490 0050 13       		.uleb128 0x13
 3491 0051 00       		.byte	0
 3492 0052 00       		.byte	0
 3493 0053 08       		.uleb128 0x8
 3494 0054 0D       		.uleb128 0xd
 3495 0055 00       		.byte	0
 3496 0056 03       		.uleb128 0x3
 3497 0057 0E       		.uleb128 0xe
 3498 0058 3A       		.uleb128 0x3a
 3499 0059 0B       		.uleb128 0xb
 3500 005a 3B       		.uleb128 0x3b
 3501 005b 0B       		.uleb128 0xb
 3502 005c 49       		.uleb128 0x49
 3503 005d 13       		.uleb128 0x13
 3504 005e 38       		.uleb128 0x38
 3505 005f 0B       		.uleb128 0xb
 3506 0060 00       		.byte	0
 3507 0061 00       		.byte	0
 3508 0062 09       		.uleb128 0x9
 3509 0063 0D       		.uleb128 0xd
 3510 0064 00       		.byte	0
 3511 0065 03       		.uleb128 0x3
 3512 0066 08       		.uleb128 0x8
 3513 0067 3A       		.uleb128 0x3a
 3514 0068 0B       		.uleb128 0xb
 3515 0069 3B       		.uleb128 0x3b
 3516 006a 0B       		.uleb128 0xb
 3517 006b 49       		.uleb128 0x49
 3518 006c 13       		.uleb128 0x13
 3519 006d 38       		.uleb128 0x38
 3520 006e 0B       		.uleb128 0xb
ARM GAS  C:\Users\Pearl\AppData\Local\Temp\cc4hQ0L2.s 			page 63


 3521 006f 00       		.byte	0
 3522 0070 00       		.byte	0
 3523 0071 0A       		.uleb128 0xa
 3524 0072 0D       		.uleb128 0xd
 3525 0073 00       		.byte	0
 3526 0074 03       		.uleb128 0x3
 3527 0075 08       		.uleb128 0x8
 3528 0076 3A       		.uleb128 0x3a
 3529 0077 0B       		.uleb128 0xb
 3530 0078 3B       		.uleb128 0x3b
 3531 0079 05       		.uleb128 0x5
 3532 007a 49       		.uleb128 0x49
 3533 007b 13       		.uleb128 0x13
 3534 007c 38       		.uleb128 0x38
 3535 007d 0B       		.uleb128 0xb
 3536 007e 00       		.byte	0
 3537 007f 00       		.byte	0
 3538 0080 0B       		.uleb128 0xb
 3539 0081 0D       		.uleb128 0xd
 3540 0082 00       		.byte	0
 3541 0083 03       		.uleb128 0x3
 3542 0084 0E       		.uleb128 0xe
 3543 0085 3A       		.uleb128 0x3a
 3544 0086 0B       		.uleb128 0xb
 3545 0087 3B       		.uleb128 0x3b
 3546 0088 05       		.uleb128 0x5
 3547 0089 49       		.uleb128 0x49
 3548 008a 13       		.uleb128 0x13
 3549 008b 38       		.uleb128 0x38
 3550 008c 0B       		.uleb128 0xb
 3551 008d 00       		.byte	0
 3552 008e 00       		.byte	0
 3553 008f 0C       		.uleb128 0xc
 3554 0090 0F       		.uleb128 0xf
 3555 0091 00       		.byte	0
 3556 0092 0B       		.uleb128 0xb
 3557 0093 0B       		.uleb128 0xb
 3558 0094 49       		.uleb128 0x49
 3559 0095 13       		.uleb128 0x13
 3560 0096 00       		.byte	0
 3561 0097 00       		.byte	0
 3562 0098 0D       		.uleb128 0xd
 3563 0099 13       		.uleb128 0x13
 3564 009a 01       		.byte	0x1
 3565 009b 03       		.uleb128 0x3
 3566 009c 0E       		.uleb128 0xe
 3567 009d 0B       		.uleb128 0xb
 3568 009e 0B       		.uleb128 0xb
 3569 009f 3A       		.uleb128 0x3a
 3570 00a0 0B       		.uleb128 0xb
 3571 00a1 3B       		.uleb128 0x3b
 3572 00a2 05       		.uleb128 0x5
 3573 00a3 01       		.uleb128 0x1
 3574 00a4 13       		.uleb128 0x13
 3575 00a5 00       		.byte	0
 3576 00a6 00       		.byte	0
 3577 00a7 0E       		.uleb128 0xe
ARM GAS  C:\Users\Pearl\AppData\Local\Temp\cc4hQ0L2.s 			page 64


 3578 00a8 15       		.uleb128 0x15
 3579 00a9 01       		.byte	0x1
 3580 00aa 27       		.uleb128 0x27
 3581 00ab 19       		.uleb128 0x19
 3582 00ac 01       		.uleb128 0x1
 3583 00ad 13       		.uleb128 0x13
 3584 00ae 00       		.byte	0
 3585 00af 00       		.byte	0
 3586 00b0 0F       		.uleb128 0xf
 3587 00b1 05       		.uleb128 0x5
 3588 00b2 00       		.byte	0
 3589 00b3 49       		.uleb128 0x49
 3590 00b4 13       		.uleb128 0x13
 3591 00b5 00       		.byte	0
 3592 00b6 00       		.byte	0
 3593 00b7 10       		.uleb128 0x10
 3594 00b8 0F       		.uleb128 0xf
 3595 00b9 00       		.byte	0
 3596 00ba 0B       		.uleb128 0xb
 3597 00bb 0B       		.uleb128 0xb
 3598 00bc 00       		.byte	0
 3599 00bd 00       		.byte	0
 3600 00be 11       		.uleb128 0x11
 3601 00bf 01       		.uleb128 0x1
 3602 00c0 01       		.byte	0x1
 3603 00c1 49       		.uleb128 0x49
 3604 00c2 13       		.uleb128 0x13
 3605 00c3 01       		.uleb128 0x1
 3606 00c4 13       		.uleb128 0x13
 3607 00c5 00       		.byte	0
 3608 00c6 00       		.byte	0
 3609 00c7 12       		.uleb128 0x12
 3610 00c8 21       		.uleb128 0x21
 3611 00c9 00       		.byte	0
 3612 00ca 49       		.uleb128 0x49
 3613 00cb 13       		.uleb128 0x13
 3614 00cc 2F       		.uleb128 0x2f
 3615 00cd 0B       		.uleb128 0xb
 3616 00ce 00       		.byte	0
 3617 00cf 00       		.byte	0
 3618 00d0 13       		.uleb128 0x13
 3619 00d1 34       		.uleb128 0x34
 3620 00d2 00       		.byte	0
 3621 00d3 03       		.uleb128 0x3
 3622 00d4 0E       		.uleb128 0xe
 3623 00d5 3A       		.uleb128 0x3a
 3624 00d6 0B       		.uleb128 0xb
 3625 00d7 3B       		.uleb128 0x3b
 3626 00d8 05       		.uleb128 0x5
 3627 00d9 49       		.uleb128 0x49
 3628 00da 13       		.uleb128 0x13
 3629 00db 3F       		.uleb128 0x3f
 3630 00dc 19       		.uleb128 0x19
 3631 00dd 3C       		.uleb128 0x3c
 3632 00de 19       		.uleb128 0x19
 3633 00df 00       		.byte	0
 3634 00e0 00       		.byte	0
ARM GAS  C:\Users\Pearl\AppData\Local\Temp\cc4hQ0L2.s 			page 65


 3635 00e1 14       		.uleb128 0x14
 3636 00e2 34       		.uleb128 0x34
 3637 00e3 00       		.byte	0
 3638 00e4 03       		.uleb128 0x3
 3639 00e5 0E       		.uleb128 0xe
 3640 00e6 3A       		.uleb128 0x3a
 3641 00e7 0B       		.uleb128 0xb
 3642 00e8 3B       		.uleb128 0x3b
 3643 00e9 0B       		.uleb128 0xb
 3644 00ea 49       		.uleb128 0x49
 3645 00eb 13       		.uleb128 0x13
 3646 00ec 3F       		.uleb128 0x3f
 3647 00ed 19       		.uleb128 0x19
 3648 00ee 3C       		.uleb128 0x3c
 3649 00ef 19       		.uleb128 0x19
 3650 00f0 00       		.byte	0
 3651 00f1 00       		.byte	0
 3652 00f2 15       		.uleb128 0x15
 3653 00f3 13       		.uleb128 0x13
 3654 00f4 01       		.byte	0x1
 3655 00f5 0B       		.uleb128 0xb
 3656 00f6 0B       		.uleb128 0xb
 3657 00f7 3A       		.uleb128 0x3a
 3658 00f8 0B       		.uleb128 0xb
 3659 00f9 3B       		.uleb128 0x3b
 3660 00fa 0B       		.uleb128 0xb
 3661 00fb 01       		.uleb128 0x1
 3662 00fc 13       		.uleb128 0x13
 3663 00fd 00       		.byte	0
 3664 00fe 00       		.byte	0
 3665 00ff 16       		.uleb128 0x16
 3666 0100 13       		.uleb128 0x13
 3667 0101 01       		.byte	0x1
 3668 0102 0B       		.uleb128 0xb
 3669 0103 05       		.uleb128 0x5
 3670 0104 3A       		.uleb128 0x3a
 3671 0105 0B       		.uleb128 0xb
 3672 0106 3B       		.uleb128 0x3b
 3673 0107 0B       		.uleb128 0xb
 3674 0108 01       		.uleb128 0x1
 3675 0109 13       		.uleb128 0x13
 3676 010a 00       		.byte	0
 3677 010b 00       		.byte	0
 3678 010c 17       		.uleb128 0x17
 3679 010d 0D       		.uleb128 0xd
 3680 010e 00       		.byte	0
 3681 010f 03       		.uleb128 0x3
 3682 0110 0E       		.uleb128 0xe
 3683 0111 3A       		.uleb128 0x3a
 3684 0112 0B       		.uleb128 0xb
 3685 0113 3B       		.uleb128 0x3b
 3686 0114 05       		.uleb128 0x5
 3687 0115 49       		.uleb128 0x49
 3688 0116 13       		.uleb128 0x13
 3689 0117 38       		.uleb128 0x38
 3690 0118 05       		.uleb128 0x5
 3691 0119 00       		.byte	0
ARM GAS  C:\Users\Pearl\AppData\Local\Temp\cc4hQ0L2.s 			page 66


 3692 011a 00       		.byte	0
 3693 011b 18       		.uleb128 0x18
 3694 011c 0D       		.uleb128 0xd
 3695 011d 00       		.byte	0
 3696 011e 03       		.uleb128 0x3
 3697 011f 08       		.uleb128 0x8
 3698 0120 3A       		.uleb128 0x3a
 3699 0121 0B       		.uleb128 0xb
 3700 0122 3B       		.uleb128 0x3b
 3701 0123 05       		.uleb128 0x5
 3702 0124 49       		.uleb128 0x49
 3703 0125 13       		.uleb128 0x13
 3704 0126 38       		.uleb128 0x38
 3705 0127 05       		.uleb128 0x5
 3706 0128 00       		.byte	0
 3707 0129 00       		.byte	0
 3708 012a 19       		.uleb128 0x19
 3709 012b 16       		.uleb128 0x16
 3710 012c 00       		.byte	0
 3711 012d 03       		.uleb128 0x3
 3712 012e 0E       		.uleb128 0xe
 3713 012f 3A       		.uleb128 0x3a
 3714 0130 0B       		.uleb128 0xb
 3715 0131 3B       		.uleb128 0x3b
 3716 0132 05       		.uleb128 0x5
 3717 0133 49       		.uleb128 0x49
 3718 0134 13       		.uleb128 0x13
 3719 0135 00       		.byte	0
 3720 0136 00       		.byte	0
 3721 0137 1A       		.uleb128 0x1a
 3722 0138 13       		.uleb128 0x13
 3723 0139 01       		.byte	0x1
 3724 013a 0B       		.uleb128 0xb
 3725 013b 0B       		.uleb128 0xb
 3726 013c 3A       		.uleb128 0x3a
 3727 013d 0B       		.uleb128 0xb
 3728 013e 3B       		.uleb128 0x3b
 3729 013f 05       		.uleb128 0x5
 3730 0140 01       		.uleb128 0x1
 3731 0141 13       		.uleb128 0x13
 3732 0142 00       		.byte	0
 3733 0143 00       		.byte	0
 3734 0144 1B       		.uleb128 0x1b
 3735 0145 17       		.uleb128 0x17
 3736 0146 01       		.byte	0x1
 3737 0147 0B       		.uleb128 0xb
 3738 0148 0B       		.uleb128 0xb
 3739 0149 3A       		.uleb128 0x3a
 3740 014a 0B       		.uleb128 0xb
 3741 014b 3B       		.uleb128 0x3b
 3742 014c 0B       		.uleb128 0xb
 3743 014d 01       		.uleb128 0x1
 3744 014e 13       		.uleb128 0x13
 3745 014f 00       		.byte	0
 3746 0150 00       		.byte	0
 3747 0151 1C       		.uleb128 0x1c
 3748 0152 0D       		.uleb128 0xd
ARM GAS  C:\Users\Pearl\AppData\Local\Temp\cc4hQ0L2.s 			page 67


 3749 0153 00       		.byte	0
 3750 0154 03       		.uleb128 0x3
 3751 0155 0E       		.uleb128 0xe
 3752 0156 3A       		.uleb128 0x3a
 3753 0157 0B       		.uleb128 0xb
 3754 0158 3B       		.uleb128 0x3b
 3755 0159 0B       		.uleb128 0xb
 3756 015a 49       		.uleb128 0x49
 3757 015b 13       		.uleb128 0x13
 3758 015c 00       		.byte	0
 3759 015d 00       		.byte	0
 3760 015e 1D       		.uleb128 0x1d
 3761 015f 0D       		.uleb128 0xd
 3762 0160 00       		.byte	0
 3763 0161 03       		.uleb128 0x3
 3764 0162 0E       		.uleb128 0xe
 3765 0163 3A       		.uleb128 0x3a
 3766 0164 0B       		.uleb128 0xb
 3767 0165 3B       		.uleb128 0x3b
 3768 0166 05       		.uleb128 0x5
 3769 0167 49       		.uleb128 0x49
 3770 0168 13       		.uleb128 0x13
 3771 0169 00       		.byte	0
 3772 016a 00       		.byte	0
 3773 016b 1E       		.uleb128 0x1e
 3774 016c 34       		.uleb128 0x34
 3775 016d 00       		.byte	0
 3776 016e 03       		.uleb128 0x3
 3777 016f 08       		.uleb128 0x8
 3778 0170 3A       		.uleb128 0x3a
 3779 0171 0B       		.uleb128 0xb
 3780 0172 3B       		.uleb128 0x3b
 3781 0173 05       		.uleb128 0x5
 3782 0174 49       		.uleb128 0x49
 3783 0175 13       		.uleb128 0x13
 3784 0176 3F       		.uleb128 0x3f
 3785 0177 19       		.uleb128 0x19
 3786 0178 3C       		.uleb128 0x3c
 3787 0179 19       		.uleb128 0x19
 3788 017a 00       		.byte	0
 3789 017b 00       		.byte	0
 3790 017c 1F       		.uleb128 0x1f
 3791 017d 21       		.uleb128 0x21
 3792 017e 00       		.byte	0
 3793 017f 00       		.byte	0
 3794 0180 00       		.byte	0
 3795 0181 20       		.uleb128 0x20
 3796 0182 15       		.uleb128 0x15
 3797 0183 01       		.byte	0x1
 3798 0184 27       		.uleb128 0x27
 3799 0185 19       		.uleb128 0x19
 3800 0186 49       		.uleb128 0x49
 3801 0187 13       		.uleb128 0x13
 3802 0188 01       		.uleb128 0x1
 3803 0189 13       		.uleb128 0x13
 3804 018a 00       		.byte	0
 3805 018b 00       		.byte	0
ARM GAS  C:\Users\Pearl\AppData\Local\Temp\cc4hQ0L2.s 			page 68


 3806 018c 21       		.uleb128 0x21
 3807 018d 13       		.uleb128 0x13
 3808 018e 00       		.byte	0
 3809 018f 0B       		.uleb128 0xb
 3810 0190 0B       		.uleb128 0xb
 3811 0191 3A       		.uleb128 0x3a
 3812 0192 0B       		.uleb128 0xb
 3813 0193 3B       		.uleb128 0x3b
 3814 0194 0B       		.uleb128 0xb
 3815 0195 00       		.byte	0
 3816 0196 00       		.byte	0
 3817 0197 22       		.uleb128 0x22
 3818 0198 04       		.uleb128 0x4
 3819 0199 01       		.byte	0x1
 3820 019a 3E       		.uleb128 0x3e
 3821 019b 0B       		.uleb128 0xb
 3822 019c 0B       		.uleb128 0xb
 3823 019d 0B       		.uleb128 0xb
 3824 019e 49       		.uleb128 0x49
 3825 019f 13       		.uleb128 0x13
 3826 01a0 3A       		.uleb128 0x3a
 3827 01a1 0B       		.uleb128 0xb
 3828 01a2 3B       		.uleb128 0x3b
 3829 01a3 0B       		.uleb128 0xb
 3830 01a4 01       		.uleb128 0x1
 3831 01a5 13       		.uleb128 0x13
 3832 01a6 00       		.byte	0
 3833 01a7 00       		.byte	0
 3834 01a8 23       		.uleb128 0x23
 3835 01a9 28       		.uleb128 0x28
 3836 01aa 00       		.byte	0
 3837 01ab 03       		.uleb128 0x3
 3838 01ac 0E       		.uleb128 0xe
 3839 01ad 1C       		.uleb128 0x1c
 3840 01ae 0B       		.uleb128 0xb
 3841 01af 00       		.byte	0
 3842 01b0 00       		.byte	0
 3843 01b1 24       		.uleb128 0x24
 3844 01b2 34       		.uleb128 0x34
 3845 01b3 00       		.byte	0
 3846 01b4 03       		.uleb128 0x3
 3847 01b5 0E       		.uleb128 0xe
 3848 01b6 3A       		.uleb128 0x3a
 3849 01b7 0B       		.uleb128 0xb
 3850 01b8 3B       		.uleb128 0x3b
 3851 01b9 0B       		.uleb128 0xb
 3852 01ba 49       		.uleb128 0x49
 3853 01bb 13       		.uleb128 0x13
 3854 01bc 02       		.uleb128 0x2
 3855 01bd 18       		.uleb128 0x18
 3856 01be 00       		.byte	0
 3857 01bf 00       		.byte	0
 3858 01c0 25       		.uleb128 0x25
 3859 01c1 2E       		.uleb128 0x2e
 3860 01c2 01       		.byte	0x1
 3861 01c3 3F       		.uleb128 0x3f
 3862 01c4 19       		.uleb128 0x19
ARM GAS  C:\Users\Pearl\AppData\Local\Temp\cc4hQ0L2.s 			page 69


 3863 01c5 03       		.uleb128 0x3
 3864 01c6 0E       		.uleb128 0xe
 3865 01c7 3A       		.uleb128 0x3a
 3866 01c8 0B       		.uleb128 0xb
 3867 01c9 3B       		.uleb128 0x3b
 3868 01ca 0B       		.uleb128 0xb
 3869 01cb 27       		.uleb128 0x27
 3870 01cc 19       		.uleb128 0x19
 3871 01cd 11       		.uleb128 0x11
 3872 01ce 01       		.uleb128 0x1
 3873 01cf 12       		.uleb128 0x12
 3874 01d0 06       		.uleb128 0x6
 3875 01d1 40       		.uleb128 0x40
 3876 01d2 18       		.uleb128 0x18
 3877 01d3 9742     		.uleb128 0x2117
 3878 01d5 19       		.uleb128 0x19
 3879 01d6 01       		.uleb128 0x1
 3880 01d7 13       		.uleb128 0x13
 3881 01d8 00       		.byte	0
 3882 01d9 00       		.byte	0
 3883 01da 26       		.uleb128 0x26
 3884 01db 1D       		.uleb128 0x1d
 3885 01dc 00       		.byte	0
 3886 01dd 31       		.uleb128 0x31
 3887 01de 13       		.uleb128 0x13
 3888 01df 52       		.uleb128 0x52
 3889 01e0 01       		.uleb128 0x1
 3890 01e1 55       		.uleb128 0x55
 3891 01e2 17       		.uleb128 0x17
 3892 01e3 58       		.uleb128 0x58
 3893 01e4 0B       		.uleb128 0xb
 3894 01e5 59       		.uleb128 0x59
 3895 01e6 0B       		.uleb128 0xb
 3896 01e7 00       		.byte	0
 3897 01e8 00       		.byte	0
 3898 01e9 27       		.uleb128 0x27
 3899 01ea 898201   		.uleb128 0x4109
 3900 01ed 01       		.byte	0x1
 3901 01ee 11       		.uleb128 0x11
 3902 01ef 01       		.uleb128 0x1
 3903 01f0 31       		.uleb128 0x31
 3904 01f1 13       		.uleb128 0x13
 3905 01f2 01       		.uleb128 0x1
 3906 01f3 13       		.uleb128 0x13
 3907 01f4 00       		.byte	0
 3908 01f5 00       		.byte	0
 3909 01f6 28       		.uleb128 0x28
 3910 01f7 8A8201   		.uleb128 0x410a
 3911 01fa 00       		.byte	0
 3912 01fb 02       		.uleb128 0x2
 3913 01fc 18       		.uleb128 0x18
 3914 01fd 9142     		.uleb128 0x2111
 3915 01ff 18       		.uleb128 0x18
 3916 0200 00       		.byte	0
 3917 0201 00       		.byte	0
 3918 0202 29       		.uleb128 0x29
 3919 0203 898201   		.uleb128 0x4109
ARM GAS  C:\Users\Pearl\AppData\Local\Temp\cc4hQ0L2.s 			page 70


 3920 0206 00       		.byte	0
 3921 0207 11       		.uleb128 0x11
 3922 0208 01       		.uleb128 0x1
 3923 0209 31       		.uleb128 0x31
 3924 020a 13       		.uleb128 0x13
 3925 020b 00       		.byte	0
 3926 020c 00       		.byte	0
 3927 020d 2A       		.uleb128 0x2a
 3928 020e 898201   		.uleb128 0x4109
 3929 0211 01       		.byte	0x1
 3930 0212 11       		.uleb128 0x11
 3931 0213 01       		.uleb128 0x1
 3932 0214 31       		.uleb128 0x31
 3933 0215 13       		.uleb128 0x13
 3934 0216 00       		.byte	0
 3935 0217 00       		.byte	0
 3936 0218 2B       		.uleb128 0x2b
 3937 0219 2E       		.uleb128 0x2e
 3938 021a 01       		.byte	0x1
 3939 021b 03       		.uleb128 0x3
 3940 021c 0E       		.uleb128 0xe
 3941 021d 3A       		.uleb128 0x3a
 3942 021e 0B       		.uleb128 0xb
 3943 021f 3B       		.uleb128 0x3b
 3944 0220 0B       		.uleb128 0xb
 3945 0221 27       		.uleb128 0x27
 3946 0222 19       		.uleb128 0x19
 3947 0223 11       		.uleb128 0x11
 3948 0224 01       		.uleb128 0x1
 3949 0225 12       		.uleb128 0x12
 3950 0226 06       		.uleb128 0x6
 3951 0227 40       		.uleb128 0x40
 3952 0228 18       		.uleb128 0x18
 3953 0229 9742     		.uleb128 0x2117
 3954 022b 19       		.uleb128 0x19
 3955 022c 01       		.uleb128 0x1
 3956 022d 13       		.uleb128 0x13
 3957 022e 00       		.byte	0
 3958 022f 00       		.byte	0
 3959 0230 2C       		.uleb128 0x2c
 3960 0231 05       		.uleb128 0x5
 3961 0232 00       		.byte	0
 3962 0233 03       		.uleb128 0x3
 3963 0234 08       		.uleb128 0x8
 3964 0235 3A       		.uleb128 0x3a
 3965 0236 0B       		.uleb128 0xb
 3966 0237 3B       		.uleb128 0x3b
 3967 0238 0B       		.uleb128 0xb
 3968 0239 49       		.uleb128 0x49
 3969 023a 13       		.uleb128 0x13
 3970 023b 02       		.uleb128 0x2
 3971 023c 17       		.uleb128 0x17
 3972 023d 00       		.byte	0
 3973 023e 00       		.byte	0
 3974 023f 2D       		.uleb128 0x2d
 3975 0240 34       		.uleb128 0x34
 3976 0241 00       		.byte	0
ARM GAS  C:\Users\Pearl\AppData\Local\Temp\cc4hQ0L2.s 			page 71


 3977 0242 03       		.uleb128 0x3
 3978 0243 0E       		.uleb128 0xe
 3979 0244 3A       		.uleb128 0x3a
 3980 0245 0B       		.uleb128 0xb
 3981 0246 3B       		.uleb128 0x3b
 3982 0247 0B       		.uleb128 0xb
 3983 0248 49       		.uleb128 0x49
 3984 0249 13       		.uleb128 0x13
 3985 024a 02       		.uleb128 0x2
 3986 024b 17       		.uleb128 0x17
 3987 024c 00       		.byte	0
 3988 024d 00       		.byte	0
 3989 024e 2E       		.uleb128 0x2e
 3990 024f 34       		.uleb128 0x34
 3991 0250 00       		.byte	0
 3992 0251 03       		.uleb128 0x3
 3993 0252 0E       		.uleb128 0xe
 3994 0253 3A       		.uleb128 0x3a
 3995 0254 0B       		.uleb128 0xb
 3996 0255 3B       		.uleb128 0x3b
 3997 0256 0B       		.uleb128 0xb
 3998 0257 49       		.uleb128 0x49
 3999 0258 13       		.uleb128 0x13
 4000 0259 1C       		.uleb128 0x1c
 4001 025a 0B       		.uleb128 0xb
 4002 025b 00       		.byte	0
 4003 025c 00       		.byte	0
 4004 025d 2F       		.uleb128 0x2f
 4005 025e 1D       		.uleb128 0x1d
 4006 025f 01       		.byte	0x1
 4007 0260 31       		.uleb128 0x31
 4008 0261 13       		.uleb128 0x13
 4009 0262 52       		.uleb128 0x52
 4010 0263 01       		.uleb128 0x1
 4011 0264 55       		.uleb128 0x55
 4012 0265 17       		.uleb128 0x17
 4013 0266 58       		.uleb128 0x58
 4014 0267 0B       		.uleb128 0xb
 4015 0268 59       		.uleb128 0x59
 4016 0269 0B       		.uleb128 0xb
 4017 026a 01       		.uleb128 0x1
 4018 026b 13       		.uleb128 0x13
 4019 026c 00       		.byte	0
 4020 026d 00       		.byte	0
 4021 026e 30       		.uleb128 0x30
 4022 026f 05       		.uleb128 0x5
 4023 0270 00       		.byte	0
 4024 0271 31       		.uleb128 0x31
 4025 0272 13       		.uleb128 0x13
 4026 0273 02       		.uleb128 0x2
 4027 0274 17       		.uleb128 0x17
 4028 0275 00       		.byte	0
 4029 0276 00       		.byte	0
 4030 0277 31       		.uleb128 0x31
 4031 0278 1D       		.uleb128 0x1d
 4032 0279 01       		.byte	0x1
 4033 027a 31       		.uleb128 0x31
ARM GAS  C:\Users\Pearl\AppData\Local\Temp\cc4hQ0L2.s 			page 72


 4034 027b 13       		.uleb128 0x13
 4035 027c 11       		.uleb128 0x11
 4036 027d 01       		.uleb128 0x1
 4037 027e 12       		.uleb128 0x12
 4038 027f 06       		.uleb128 0x6
 4039 0280 58       		.uleb128 0x58
 4040 0281 0B       		.uleb128 0xb
 4041 0282 59       		.uleb128 0x59
 4042 0283 0B       		.uleb128 0xb
 4043 0284 01       		.uleb128 0x1
 4044 0285 13       		.uleb128 0x13
 4045 0286 00       		.byte	0
 4046 0287 00       		.byte	0
 4047 0288 32       		.uleb128 0x32
 4048 0289 1D       		.uleb128 0x1d
 4049 028a 01       		.byte	0x1
 4050 028b 31       		.uleb128 0x31
 4051 028c 13       		.uleb128 0x13
 4052 028d 11       		.uleb128 0x11
 4053 028e 01       		.uleb128 0x1
 4054 028f 12       		.uleb128 0x12
 4055 0290 06       		.uleb128 0x6
 4056 0291 58       		.uleb128 0x58
 4057 0292 0B       		.uleb128 0xb
 4058 0293 59       		.uleb128 0x59
 4059 0294 05       		.uleb128 0x5
 4060 0295 00       		.byte	0
 4061 0296 00       		.byte	0
 4062 0297 33       		.uleb128 0x33
 4063 0298 0B       		.uleb128 0xb
 4064 0299 01       		.byte	0x1
 4065 029a 11       		.uleb128 0x11
 4066 029b 01       		.uleb128 0x1
 4067 029c 12       		.uleb128 0x12
 4068 029d 06       		.uleb128 0x6
 4069 029e 00       		.byte	0
 4070 029f 00       		.byte	0
 4071 02a0 34       		.uleb128 0x34
 4072 02a1 34       		.uleb128 0x34
 4073 02a2 00       		.byte	0
 4074 02a3 31       		.uleb128 0x31
 4075 02a4 13       		.uleb128 0x13
 4076 02a5 00       		.byte	0
 4077 02a6 00       		.byte	0
 4078 02a7 35       		.uleb128 0x35
 4079 02a8 1D       		.uleb128 0x1d
 4080 02a9 00       		.byte	0
 4081 02aa 31       		.uleb128 0x31
 4082 02ab 13       		.uleb128 0x13
 4083 02ac 11       		.uleb128 0x11
 4084 02ad 01       		.uleb128 0x1
 4085 02ae 12       		.uleb128 0x12
 4086 02af 06       		.uleb128 0x6
 4087 02b0 58       		.uleb128 0x58
 4088 02b1 0B       		.uleb128 0xb
 4089 02b2 59       		.uleb128 0x59
 4090 02b3 0B       		.uleb128 0xb
ARM GAS  C:\Users\Pearl\AppData\Local\Temp\cc4hQ0L2.s 			page 73


 4091 02b4 00       		.byte	0
 4092 02b5 00       		.byte	0
 4093 02b6 36       		.uleb128 0x36
 4094 02b7 2E       		.uleb128 0x2e
 4095 02b8 00       		.byte	0
 4096 02b9 03       		.uleb128 0x3
 4097 02ba 0E       		.uleb128 0xe
 4098 02bb 3A       		.uleb128 0x3a
 4099 02bc 0B       		.uleb128 0xb
 4100 02bd 3B       		.uleb128 0x3b
 4101 02be 0B       		.uleb128 0xb
 4102 02bf 27       		.uleb128 0x27
 4103 02c0 19       		.uleb128 0x19
 4104 02c1 20       		.uleb128 0x20
 4105 02c2 0B       		.uleb128 0xb
 4106 02c3 00       		.byte	0
 4107 02c4 00       		.byte	0
 4108 02c5 37       		.uleb128 0x37
 4109 02c6 2E       		.uleb128 0x2e
 4110 02c7 00       		.byte	0
 4111 02c8 3F       		.uleb128 0x3f
 4112 02c9 19       		.uleb128 0x19
 4113 02ca 03       		.uleb128 0x3
 4114 02cb 0E       		.uleb128 0xe
 4115 02cc 3A       		.uleb128 0x3a
 4116 02cd 0B       		.uleb128 0xb
 4117 02ce 3B       		.uleb128 0x3b
 4118 02cf 0B       		.uleb128 0xb
 4119 02d0 27       		.uleb128 0x27
 4120 02d1 19       		.uleb128 0x19
 4121 02d2 49       		.uleb128 0x49
 4122 02d3 13       		.uleb128 0x13
 4123 02d4 11       		.uleb128 0x11
 4124 02d5 01       		.uleb128 0x1
 4125 02d6 12       		.uleb128 0x12
 4126 02d7 06       		.uleb128 0x6
 4127 02d8 40       		.uleb128 0x40
 4128 02d9 18       		.uleb128 0x18
 4129 02da 9742     		.uleb128 0x2117
 4130 02dc 19       		.uleb128 0x19
 4131 02dd 00       		.byte	0
 4132 02de 00       		.byte	0
 4133 02df 38       		.uleb128 0x38
 4134 02e0 05       		.uleb128 0x5
 4135 02e1 00       		.byte	0
 4136 02e2 03       		.uleb128 0x3
 4137 02e3 0E       		.uleb128 0xe
 4138 02e4 3A       		.uleb128 0x3a
 4139 02e5 0B       		.uleb128 0xb
 4140 02e6 3B       		.uleb128 0x3b
 4141 02e7 0B       		.uleb128 0xb
 4142 02e8 49       		.uleb128 0x49
 4143 02e9 13       		.uleb128 0x13
 4144 02ea 02       		.uleb128 0x2
 4145 02eb 17       		.uleb128 0x17
 4146 02ec 00       		.byte	0
 4147 02ed 00       		.byte	0
ARM GAS  C:\Users\Pearl\AppData\Local\Temp\cc4hQ0L2.s 			page 74


 4148 02ee 39       		.uleb128 0x39
 4149 02ef 2E       		.uleb128 0x2e
 4150 02f0 01       		.byte	0x1
 4151 02f1 03       		.uleb128 0x3
 4152 02f2 0E       		.uleb128 0xe
 4153 02f3 3A       		.uleb128 0x3a
 4154 02f4 0B       		.uleb128 0xb
 4155 02f5 3B       		.uleb128 0x3b
 4156 02f6 0B       		.uleb128 0xb
 4157 02f7 27       		.uleb128 0x27
 4158 02f8 19       		.uleb128 0x19
 4159 02f9 20       		.uleb128 0x20
 4160 02fa 0B       		.uleb128 0xb
 4161 02fb 01       		.uleb128 0x1
 4162 02fc 13       		.uleb128 0x13
 4163 02fd 00       		.byte	0
 4164 02fe 00       		.byte	0
 4165 02ff 3A       		.uleb128 0x3a
 4166 0300 05       		.uleb128 0x5
 4167 0301 00       		.byte	0
 4168 0302 03       		.uleb128 0x3
 4169 0303 0E       		.uleb128 0xe
 4170 0304 3A       		.uleb128 0x3a
 4171 0305 0B       		.uleb128 0xb
 4172 0306 3B       		.uleb128 0x3b
 4173 0307 0B       		.uleb128 0xb
 4174 0308 49       		.uleb128 0x49
 4175 0309 13       		.uleb128 0x13
 4176 030a 00       		.byte	0
 4177 030b 00       		.byte	0
 4178 030c 3B       		.uleb128 0x3b
 4179 030d 2E       		.uleb128 0x2e
 4180 030e 00       		.byte	0
 4181 030f 03       		.uleb128 0x3
 4182 0310 0E       		.uleb128 0xe
 4183 0311 3A       		.uleb128 0x3a
 4184 0312 0B       		.uleb128 0xb
 4185 0313 3B       		.uleb128 0x3b
 4186 0314 05       		.uleb128 0x5
 4187 0315 27       		.uleb128 0x27
 4188 0316 19       		.uleb128 0x19
 4189 0317 49       		.uleb128 0x49
 4190 0318 13       		.uleb128 0x13
 4191 0319 20       		.uleb128 0x20
 4192 031a 0B       		.uleb128 0xb
 4193 031b 00       		.byte	0
 4194 031c 00       		.byte	0
 4195 031d 3C       		.uleb128 0x3c
 4196 031e 2E       		.uleb128 0x2e
 4197 031f 00       		.byte	0
 4198 0320 03       		.uleb128 0x3
 4199 0321 0E       		.uleb128 0xe
 4200 0322 3A       		.uleb128 0x3a
 4201 0323 0B       		.uleb128 0xb
 4202 0324 3B       		.uleb128 0x3b
 4203 0325 05       		.uleb128 0x5
 4204 0326 27       		.uleb128 0x27
ARM GAS  C:\Users\Pearl\AppData\Local\Temp\cc4hQ0L2.s 			page 75


 4205 0327 19       		.uleb128 0x19
 4206 0328 20       		.uleb128 0x20
 4207 0329 0B       		.uleb128 0xb
 4208 032a 00       		.byte	0
 4209 032b 00       		.byte	0
 4210 032c 3D       		.uleb128 0x3d
 4211 032d 2E       		.uleb128 0x2e
 4212 032e 01       		.byte	0x1
 4213 032f 03       		.uleb128 0x3
 4214 0330 0E       		.uleb128 0xe
 4215 0331 3A       		.uleb128 0x3a
 4216 0332 0B       		.uleb128 0xb
 4217 0333 3B       		.uleb128 0x3b
 4218 0334 05       		.uleb128 0x5
 4219 0335 27       		.uleb128 0x27
 4220 0336 19       		.uleb128 0x19
 4221 0337 20       		.uleb128 0x20
 4222 0338 0B       		.uleb128 0xb
 4223 0339 01       		.uleb128 0x1
 4224 033a 13       		.uleb128 0x13
 4225 033b 00       		.byte	0
 4226 033c 00       		.byte	0
 4227 033d 3E       		.uleb128 0x3e
 4228 033e 34       		.uleb128 0x34
 4229 033f 00       		.byte	0
 4230 0340 03       		.uleb128 0x3
 4231 0341 0E       		.uleb128 0xe
 4232 0342 49       		.uleb128 0x49
 4233 0343 13       		.uleb128 0x13
 4234 0344 34       		.uleb128 0x34
 4235 0345 19       		.uleb128 0x19
 4236 0346 1C       		.uleb128 0x1c
 4237 0347 0E       		.uleb128 0xe
 4238 0348 00       		.byte	0
 4239 0349 00       		.byte	0
 4240 034a 3F       		.uleb128 0x3f
 4241 034b 05       		.uleb128 0x5
 4242 034c 00       		.byte	0
 4243 034d 03       		.uleb128 0x3
 4244 034e 0E       		.uleb128 0xe
 4245 034f 3A       		.uleb128 0x3a
 4246 0350 0B       		.uleb128 0xb
 4247 0351 3B       		.uleb128 0x3b
 4248 0352 05       		.uleb128 0x5
 4249 0353 49       		.uleb128 0x49
 4250 0354 13       		.uleb128 0x13
 4251 0355 00       		.byte	0
 4252 0356 00       		.byte	0
 4253 0357 40       		.uleb128 0x40
 4254 0358 2E       		.uleb128 0x2e
 4255 0359 00       		.byte	0
 4256 035a 3F       		.uleb128 0x3f
 4257 035b 19       		.uleb128 0x19
 4258 035c 3C       		.uleb128 0x3c
 4259 035d 19       		.uleb128 0x19
 4260 035e 6E       		.uleb128 0x6e
 4261 035f 0E       		.uleb128 0xe
ARM GAS  C:\Users\Pearl\AppData\Local\Temp\cc4hQ0L2.s 			page 76


 4262 0360 03       		.uleb128 0x3
 4263 0361 0E       		.uleb128 0xe
 4264 0362 3A       		.uleb128 0x3a
 4265 0363 0B       		.uleb128 0xb
 4266 0364 3B       		.uleb128 0x3b
 4267 0365 05       		.uleb128 0x5
 4268 0366 00       		.byte	0
 4269 0367 00       		.byte	0
 4270 0368 41       		.uleb128 0x41
 4271 0369 2E       		.uleb128 0x2e
 4272 036a 00       		.byte	0
 4273 036b 3F       		.uleb128 0x3f
 4274 036c 19       		.uleb128 0x19
 4275 036d 3C       		.uleb128 0x3c
 4276 036e 19       		.uleb128 0x19
 4277 036f 6E       		.uleb128 0x6e
 4278 0370 0E       		.uleb128 0xe
 4279 0371 03       		.uleb128 0x3
 4280 0372 0E       		.uleb128 0xe
 4281 0373 3A       		.uleb128 0x3a
 4282 0374 0B       		.uleb128 0xb
 4283 0375 3B       		.uleb128 0x3b
 4284 0376 0B       		.uleb128 0xb
 4285 0377 00       		.byte	0
 4286 0378 00       		.byte	0
 4287 0379 00       		.byte	0
 4288              		.section	.debug_loc,"",%progbits
 4289              	.Ldebug_loc0:
 4290              	.LLST0:
 4291 0000 00000000 		.4byte	.LVL0
 4292 0004 14000000 		.4byte	.LVL2
 4293 0008 0100     		.2byte	0x1
 4294 000a 50       		.byte	0x50
 4295 000b 14000000 		.4byte	.LVL2
 4296 000f E4000000 		.4byte	.LFE257
 4297 0013 0400     		.2byte	0x4
 4298 0015 F3       		.byte	0xf3
 4299 0016 01       		.uleb128 0x1
 4300 0017 50       		.byte	0x50
 4301 0018 9F       		.byte	0x9f
 4302 0019 00000000 		.4byte	0
 4303 001d 00000000 		.4byte	0
 4304              	.LLST1:
 4305 0021 0E000000 		.4byte	.LVL1
 4306 0025 14000000 		.4byte	.LVL2
 4307 0029 0200     		.2byte	0x2
 4308 002b 38       		.byte	0x38
 4309 002c 9F       		.byte	0x9f
 4310 002d 14000000 		.4byte	.LVL2
 4311 0031 1A000000 		.4byte	.LVL3
 4312 0035 0300     		.2byte	0x3
 4313 0037 08       		.byte	0x8
 4314 0038 C8       		.byte	0xc8
 4315 0039 9F       		.byte	0x9f
 4316 003a 50000000 		.4byte	.LVL8
 4317 003e C4000000 		.4byte	.LVL13
 4318 0042 0300     		.2byte	0x3
ARM GAS  C:\Users\Pearl\AppData\Local\Temp\cc4hQ0L2.s 			page 77


 4319 0044 08       		.byte	0x8
 4320 0045 C8       		.byte	0xc8
 4321 0046 9F       		.byte	0x9f
 4322 0047 00000000 		.4byte	0
 4323 004b 00000000 		.4byte	0
 4324              	.LLST2:
 4325 004f 00000000 		.4byte	.LVL0
 4326 0053 0E000000 		.4byte	.LVL1
 4327 0057 0600     		.2byte	0x6
 4328 0059 03       		.byte	0x3
 4329 005a 00000000 		.4byte	.LC0
 4330 005e 9F       		.byte	0x9f
 4331 005f 00000000 		.4byte	0
 4332 0063 00000000 		.4byte	0
 4333              	.LLST3:
 4334 0067 3A000000 		.4byte	.LVL5
 4335 006b 42000000 		.4byte	.LVL6
 4336 006f 0300     		.2byte	0x3
 4337 0071 08       		.byte	0x8
 4338 0072 20       		.byte	0x20
 4339 0073 9F       		.byte	0x9f
 4340 0074 00000000 		.4byte	0
 4341 0078 00000000 		.4byte	0
 4342              	.LLST4:
 4343 007c 4C000000 		.4byte	.LVL7
 4344 0080 50000000 		.4byte	.LVL8
 4345 0084 0200     		.2byte	0x2
 4346 0086 30       		.byte	0x30
 4347 0087 9F       		.byte	0x9f
 4348 0088 00000000 		.4byte	0
 4349 008c 00000000 		.4byte	0
 4350              	.LLST5:
 4351 0090 58000000 		.4byte	.LVL9
 4352 0094 5C000000 		.4byte	.LVL10
 4353 0098 0300     		.2byte	0x3
 4354 009a 08       		.byte	0x8
 4355 009b 20       		.byte	0x20
 4356 009c 9F       		.byte	0x9f
 4357 009d 00000000 		.4byte	0
 4358 00a1 00000000 		.4byte	0
 4359              	.LLST6:
 4360 00a5 BC000000 		.4byte	.LVL11
 4361 00a9 C2000000 		.4byte	.LVL12
 4362 00ad 0200     		.2byte	0x2
 4363 00af 30       		.byte	0x30
 4364 00b0 9F       		.byte	0x9f
 4365 00b1 00000000 		.4byte	0
 4366 00b5 00000000 		.4byte	0
 4367              	.LLST7:
 4368 00b9 00000000 		.4byte	.LVL14
 4369 00bd 0C000000 		.4byte	.LVL16
 4370 00c1 0100     		.2byte	0x1
 4371 00c3 50       		.byte	0x50
 4372 00c4 0C000000 		.4byte	.LVL16
 4373 00c8 1C000000 		.4byte	.LFE254
 4374 00cc 0400     		.2byte	0x4
 4375 00ce F3       		.byte	0xf3
ARM GAS  C:\Users\Pearl\AppData\Local\Temp\cc4hQ0L2.s 			page 78


 4376 00cf 01       		.uleb128 0x1
 4377 00d0 50       		.byte	0x50
 4378 00d1 9F       		.byte	0x9f
 4379 00d2 00000000 		.4byte	0
 4380 00d6 00000000 		.4byte	0
 4381              	.LLST8:
 4382 00da 00000000 		.4byte	.LVL14
 4383 00de 08000000 		.4byte	.LVL15
 4384 00e2 0300     		.2byte	0x3
 4385 00e4 08       		.byte	0x8
 4386 00e5 20       		.byte	0x20
 4387 00e6 9F       		.byte	0x9f
 4388 00e7 00000000 		.4byte	0
 4389 00eb 00000000 		.4byte	0
 4390              	.LLST9:
 4391 00ef 10000000 		.4byte	.LVL17
 4392 00f3 16000000 		.4byte	.LVL18
 4393 00f7 0200     		.2byte	0x2
 4394 00f9 30       		.byte	0x30
 4395 00fa 9F       		.byte	0x9f
 4396 00fb 00000000 		.4byte	0
 4397 00ff 00000000 		.4byte	0
 4398              		.section	.debug_aranges,"",%progbits
 4399 0000 34000000 		.4byte	0x34
 4400 0004 0200     		.2byte	0x2
 4401 0006 00000000 		.4byte	.Ldebug_info0
 4402 000a 04       		.byte	0x4
 4403 000b 00       		.byte	0
 4404 000c 0000     		.2byte	0
 4405 000e 0000     		.2byte	0
 4406 0010 00000000 		.4byte	.LFB257
 4407 0014 E4000000 		.4byte	.LFE257-.LFB257
 4408 0018 00000000 		.4byte	.LFB254
 4409 001c 1C000000 		.4byte	.LFE254-.LFB254
 4410 0020 00000000 		.4byte	.LFB255
 4411 0024 08000000 		.4byte	.LFE255-.LFB255
 4412 0028 00000000 		.4byte	.LFB258
 4413 002c 4C000000 		.4byte	.LFE258-.LFB258
 4414 0030 00000000 		.4byte	0
 4415 0034 00000000 		.4byte	0
 4416              		.section	.debug_ranges,"",%progbits
 4417              	.Ldebug_ranges0:
 4418 0000 04000000 		.4byte	.LBB104
 4419 0004 0A000000 		.4byte	.LBE104
 4420 0008 0C000000 		.4byte	.LBB107
 4421 000c 0E000000 		.4byte	.LBE107
 4422 0010 00000000 		.4byte	0
 4423 0014 00000000 		.4byte	0
 4424 0018 02000000 		.4byte	.LBB138
 4425 001c 0A000000 		.4byte	.LBE138
 4426 0020 0E000000 		.4byte	.LBB141
 4427 0024 14000000 		.4byte	.LBE141
 4428 0028 00000000 		.4byte	0
 4429 002c 00000000 		.4byte	0
 4430 0030 00000000 		.4byte	.LFB257
 4431 0034 E4000000 		.4byte	.LFE257
 4432 0038 00000000 		.4byte	.LFB254
ARM GAS  C:\Users\Pearl\AppData\Local\Temp\cc4hQ0L2.s 			page 79


 4433 003c 1C000000 		.4byte	.LFE254
 4434 0040 00000000 		.4byte	.LFB255
 4435 0044 08000000 		.4byte	.LFE255
 4436 0048 00000000 		.4byte	.LFB258
 4437 004c 4C000000 		.4byte	.LFE258
 4438 0050 00000000 		.4byte	0
 4439 0054 00000000 		.4byte	0
 4440              		.section	.debug_line,"",%progbits
 4441              	.Ldebug_line0:
 4442 0000 EF040000 		.section	.debug_str,"MS",%progbits,1
 4442      02001704 
 4442      00000201 
 4442      FB0E0D00 
 4442      01010101 
 4443              	.LASF138:
 4444 0000 6F66665F 		.ascii	"off_ctx\000"
 4444      63747800 
 4445              	.LASF189:
 4446 0008 73746D33 		.ascii	"stm32_dma_stream_t\000"
 4446      325F646D 
 4446      615F7374 
 4446      7265616D 
 4446      5F7400
 4447              	.LASF4:
 4448 001b 73697A65 		.ascii	"size_t\000"
 4448      5F7400
 4449              	.LASF137:
 4450 0022 6F66665F 		.ascii	"off_prio\000"
 4450      7072696F 
 4450      00
 4451              	.LASF161:
 4452 002b 656E646D 		.ascii	"endmem\000"
 4452      656D00
 4453              	.LASF122:
 4454 0032 77747365 		.ascii	"wtsemp\000"
 4454      6D7000
 4455              	.LASF73:
 4456 0039 73797374 		.ascii	"systime_t\000"
 4456      696D655F 
 4456      7400
 4457              	.LASF146:
 4458 0043 6F66665F 		.ascii	"off_preempt\000"
 4458      70726565 
 4458      6D707400 
 4459              	.LASF127:
 4460 004f 6F776E65 		.ascii	"owner\000"
 4460      7200
 4461              	.LASF24:
 4462 0055 74707269 		.ascii	"tprio_t\000"
 4462      6F5F7400 
 4463              	.LASF149:
 4464 005d 63685F64 		.ascii	"ch_debug\000"
 4464      65627567 
 4464      00
 4465              	.LASF167:
 4466 0066 70726F76 		.ascii	"provider\000"
 4466      69646572 
ARM GAS  C:\Users\Pearl\AppData\Local\Temp\cc4hQ0L2.s 			page 80


 4466      00
 4467              	.LASF18:
 4468 006f 696E7433 		.ascii	"int32_t\000"
 4468      325F7400 
 4469              	.LASF291:
 4470 0077 75617274 		.ascii	"uartStart\000"
 4470      53746172 
 4470      7400
 4471              	.LASF297:
 4472 0081 63685468 		.ascii	"chThdResumeI\000"
 4472      64526573 
 4472      756D6549 
 4472      00
 4473              	.LASF57:
 4474 008e 76746675 		.ascii	"vtfunc_t\000"
 4474      6E635F74 
 4474      00
 4475              	.LASF292:
 4476 0097 646D6153 		.ascii	"dmaStreamRelease\000"
 4476      74726561 
 4476      6D52656C 
 4476      65617365 
 4476      00
 4477              	.LASF219:
 4478 00a8 736C6565 		.ascii	"sleep_event\000"
 4478      705F6576 
 4478      656E7400 
 4479              	.LASF63:
 4480 00b4 63685F76 		.ascii	"ch_virtual_timers_list\000"
 4480      69727475 
 4480      616C5F74 
 4480      696D6572 
 4480      735F6C69 
 4481              	.LASF259:
 4482 00cb 72635F73 		.ascii	"rc_state_t\000"
 4482      74617465 
 4482      5F7400
 4483              	.LASF303:
 4484 00d6 5F5F6675 		.ascii	"__func__\000"
 4484      6E635F5F 
 4484      00
 4485              	.LASF224:
 4486 00df 55415254 		.ascii	"UART_STOP\000"
 4486      5F53544F 
 4486      5000
 4487              	.LASF258:
 4488 00e9 52435F55 		.ascii	"RC_UNLOCKED\000"
 4488      4E4C4F43 
 4488      4B454400 
 4489              	.LASF169:
 4490 00f5 63685F64 		.ascii	"ch_dyn_element\000"
 4490      796E5F65 
 4490      6C656D65 
 4490      6E7400
 4491              	.LASF220:
 4492 0104 77616B65 		.ascii	"wakeup_event\000"
 4492      75705F65 
ARM GAS  C:\Users\Pearl\AppData\Local\Temp\cc4hQ0L2.s 			page 81


 4492      76656E74 
 4492      00
 4493              	.LASF295:
 4494 0111 75617274 		.ascii	"uartStartReceive\000"
 4494      53746172 
 4494      74526563 
 4494      65697665 
 4494      00
 4495              	.LASF213:
 4496 0122 636F6E66 		.ascii	"config\000"
 4496      696700
 4497              	.LASF37:
 4498 0129 73746174 		.ascii	"state\000"
 4498      6500
 4499              	.LASF202:
 4500 012f 50454461 		.ascii	"PEData\000"
 4500      746100
 4501              	.LASF238:
 4502 0136 72787374 		.ascii	"rxstate\000"
 4502      61746500 
 4503              	.LASF221:
 4504 013e 43414E43 		.ascii	"CANConfig\000"
 4504      6F6E6669 
 4504      6700
 4505              	.LASF105:
 4506 0148 434E4454 		.ascii	"CNDTR\000"
 4506      5200
 4507              	.LASF299:
 4508 014e 2E2F7372 		.ascii	"./src/dbus.c\000"
 4508      632F6462 
 4508      75732E63 
 4508      00
 4509              	.LASF174:
 4510 015b 6F626A5F 		.ascii	"obj_list\000"
 4510      6C697374 
 4510      00
 4511              	.LASF249:
 4512 0164 7278656E 		.ascii	"rxend_cb\000"
 4512      645F6362 
 4512      00
 4513              	.LASF140:
 4514 016d 6F66665F 		.ascii	"off_older\000"
 4514      6F6C6465 
 4514      7200
 4515              	.LASF32:
 4516 0177 7072696F 		.ascii	"prio\000"
 4516      00
 4517              	.LASF197:
 4518 017c 73746D33 		.ascii	"stm32_gpio_setup_t\000"
 4518      325F6770 
 4518      696F5F73 
 4518      65747570 
 4518      5F7400
 4519              	.LASF118:
 4520 018f 65786974 		.ascii	"exitcode\000"
 4520      636F6465 
 4520      00
ARM GAS  C:\Users\Pearl\AppData\Local\Temp\cc4hQ0L2.s 			page 82


 4521              	.LASF5:
 4522 0198 5F5F7569 		.ascii	"__uint8_t\000"
 4522      6E74385F 
 4522      7400
 4523              	.LASF212:
 4524 01a2 43414E44 		.ascii	"CANDriver\000"
 4524      72697665 
 4524      7200
 4525              	.LASF228:
 4526 01ac 55415254 		.ascii	"UART_TX_ACTIVE\000"
 4526      5F54585F 
 4526      41435449 
 4526      564500
 4527              	.LASF236:
 4528 01bb 55415254 		.ascii	"UARTDriver\000"
 4528      44726976 
 4528      657200
 4529              	.LASF11:
 4530 01c6 6C6F6E67 		.ascii	"long int\000"
 4530      20696E74 
 4530      00
 4531              	.LASF287:
 4532 01cf 706F7274 		.ascii	"port_unlock\000"
 4532      5F756E6C 
 4532      6F636B00 
 4533              	.LASF131:
 4534 01db 7A65726F 		.ascii	"zero\000"
 4534      00
 4535              	.LASF281:
 4536 01e0 63685379 		.ascii	"chSysLockFromISR\000"
 4536      734C6F63 
 4536      6B46726F 
 4536      6D495352 
 4536      00
 4537              	.LASF101:
 4538 01f1 46413152 		.ascii	"FA1R\000"
 4538      00
 4539              	.LASF22:
 4540 01f6 74737461 		.ascii	"tstate_t\000"
 4540      74655F74 
 4540      00
 4541              	.LASF42:
 4542 01ff 6570656E 		.ascii	"epending\000"
 4542      64696E67 
 4542      00
 4543              	.LASF51:
 4544 0208 74687265 		.ascii	"threads_queue_t\000"
 4544      6164735F 
 4544      71756575 
 4544      655F7400 
 4545              	.LASF113:
 4546 0218 72656761 		.ascii	"regarm_t\000"
 4546      726D5F74 
 4546      00
 4547              	.LASF277:
 4548 0221 64656372 		.ascii	"decryptDBUS\000"
 4548      79707444 
ARM GAS  C:\Users\Pearl\AppData\Local\Temp\cc4hQ0L2.s 			page 83


 4548      42555300 
 4549              	.LASF237:
 4550 022d 74787374 		.ascii	"txstate\000"
 4550      61746500 
 4551              	.LASF175:
 4552 0235 6F626A5F 		.ascii	"obj_pool\000"
 4552      706F6F6C 
 4552      00
 4553              	.LASF296:
 4554 023e 63685468 		.ascii	"chThdSuspendTimeoutS\000"
 4554      64537573 
 4554      70656E64 
 4554      54696D65 
 4554      6F757453 
 4555              	.LASF230:
 4556 0253 75617274 		.ascii	"uarttxstate_t\000"
 4556      74787374 
 4556      6174655F 
 4556      7400
 4557              	.LASF106:
 4558 0261 43504152 		.ascii	"CPAR\000"
 4558      00
 4559              	.LASF239:
 4560 0266 75736172 		.ascii	"usart\000"
 4560      7400
 4561              	.LASF204:
 4562 026c 70616C5F 		.ascii	"pal_default_config\000"
 4562      64656661 
 4562      756C745F 
 4562      636F6E66 
 4562      696700
 4563              	.LASF89:
 4564 027f 52463052 		.ascii	"RF0R\000"
 4564      00
 4565              	.LASF162:
 4566 0284 6D656D63 		.ascii	"memcore_t\000"
 4566      6F72655F 
 4566      7400
 4567              	.LASF3:
 4568 028e 7369676E 		.ascii	"signed char\000"
 4568      65642063 
 4568      68617200 
 4569              	.LASF124:
 4570 029a 65776D61 		.ascii	"ewmask\000"
 4570      736B00
 4571              	.LASF16:
 4572 02a1 75696E74 		.ascii	"uint8_t\000"
 4572      385F7400 
 4573              	.LASF26:
 4574 02a9 6576656E 		.ascii	"eventmask_t\000"
 4574      746D6173 
 4574      6B5F7400 
 4575              	.LASF88:
 4576 02b5 43414E5F 		.ascii	"CAN_FilterRegister_TypeDef\000"
 4576      46696C74 
 4576      65725265 
 4576      67697374 
ARM GAS  C:\Users\Pearl\AppData\Local\Temp\cc4hQ0L2.s 			page 84


 4576      65725F54 
 4577              	.LASF93:
 4578 02d0 73464946 		.ascii	"sFIFOMailBox\000"
 4578      4F4D6169 
 4578      6C426F78 
 4578      00
 4579              	.LASF216:
 4580 02dd 72786675 		.ascii	"rxfull_event\000"
 4580      6C6C5F65 
 4580      76656E74 
 4580      00
 4581              	.LASF120:
 4582 02ea 77747472 		.ascii	"wttrp\000"
 4582      7000
 4583              	.LASF280:
 4584 02f0 63685379 		.ascii	"chSysUnlockFromISR\000"
 4584      73556E6C 
 4584      6F636B46 
 4584      726F6D49 
 4584      535200
 4585              	.LASF91:
 4586 0303 52455345 		.ascii	"RESERVED0\000"
 4586      52564544 
 4586      3000
 4587              	.LASF94:
 4588 030d 52455345 		.ascii	"RESERVED1\000"
 4588      52564544 
 4588      3100
 4589              	.LASF6:
 4590 0317 756E7369 		.ascii	"unsigned char\000"
 4590      676E6564 
 4590      20636861 
 4590      7200
 4591              	.LASF98:
 4592 0325 52455345 		.ascii	"RESERVED3\000"
 4592      52564544 
 4592      3300
 4593              	.LASF100:
 4594 032f 52455345 		.ascii	"RESERVED4\000"
 4594      52564544 
 4594      3400
 4595              	.LASF102:
 4596 0339 52455345 		.ascii	"RESERVED5\000"
 4596      52564544 
 4596      3500
 4597              	.LASF64:
 4598 0343 6C617374 		.ascii	"lasttime\000"
 4598      74696D65 
 4598      00
 4599              	.LASF201:
 4600 034c 50444461 		.ascii	"PDData\000"
 4600      746100
 4601              	.LASF110:
 4602 0353 444D415F 		.ascii	"DMA_TypeDef\000"
 4602      54797065 
 4602      44656600 
 4603              	.LASF90:
ARM GAS  C:\Users\Pearl\AppData\Local\Temp\cc4hQ0L2.s 			page 85


 4604 035f 52463152 		.ascii	"RF1R\000"
 4604      00
 4605              	.LASF67:
 4606 0364 70616E69 		.ascii	"panic_msg\000"
 4606      635F6D73 
 4606      6700
 4607              	.LASF65:
 4608 036e 73797374 		.ascii	"system_debug_t\000"
 4608      656D5F64 
 4608      65627567 
 4608      5F7400
 4609              	.LASF158:
 4610 037d 5F426F6F 		.ascii	"_Bool\000"
 4610      6C00
 4611              	.LASF159:
 4612 0383 6D656D67 		.ascii	"memgetfunc_t\000"
 4612      65746675 
 4612      6E635F74 
 4612      00
 4613              	.LASF96:
 4614 0390 52455345 		.ascii	"RESERVED2\000"
 4614      52564544 
 4614      3200
 4615              	.LASF225:
 4616 039a 55415254 		.ascii	"UART_READY\000"
 4616      5F524541 
 4616      445900
 4617              	.LASF128:
 4618 03a5 63686172 		.ascii	"char\000"
 4618      00
 4619              	.LASF294:
 4620 03aa 75617274 		.ascii	"uartStopReceive\000"
 4620      53746F70 
 4620      52656365 
 4620      69766500 
 4621              	.LASF109:
 4622 03ba 49464352 		.ascii	"IFCR\000"
 4622      00
 4623              	.LASF302:
 4624 03bf 52435F67 		.ascii	"RC_get\000"
 4624      657400
 4625              	.LASF177:
 4626 03c6 73656D5F 		.ascii	"sem_list\000"
 4626      6C697374 
 4626      00
 4627              	.LASF8:
 4628 03cf 5F5F7569 		.ascii	"__uint16_t\000"
 4628      6E743136 
 4628      5F7400
 4629              	.LASF119:
 4630 03da 77746F62 		.ascii	"wtobjp\000"
 4630      6A7000
 4631              	.LASF268:
 4632 03e1 75617274 		.ascii	"uart_cfg\000"
 4632      5F636667 
 4632      00
 4633              	.LASF196:
ARM GAS  C:\Users\Pearl\AppData\Local\Temp\cc4hQ0L2.s 			page 86


 4634 03ea 70616C65 		.ascii	"palevent_t\000"
 4634      76656E74 
 4634      5F7400
 4635              	.LASF145:
 4636 03f5 6F66665F 		.ascii	"off_refs\000"
 4636      72656673 
 4636      00
 4637              	.LASF38:
 4638 03fe 666C6167 		.ascii	"flags\000"
 4638      7300
 4639              	.LASF264:
 4640 0404 52435F43 		.ascii	"RC_Ctl_t\000"
 4640      746C5F74 
 4640      00
 4641              	.LASF114:
 4642 040d 73746B61 		.ascii	"stkalign_t\000"
 4642      6C69676E 
 4642      5F7400
 4643              	.LASF112:
 4644 0418 55534152 		.ascii	"USART_TypeDef\000"
 4644      545F5479 
 4644      70654465 
 4644      6600
 4645              	.LASF45:
 4646 0426 6D706F6F 		.ascii	"mpool\000"
 4646      6C00
 4647              	.LASF151:
 4648 042c 6576656E 		.ascii	"event_listener_t\000"
 4648      745F6C69 
 4648      7374656E 
 4648      65725F74 
 4648      00
 4649              	.LASF134:
 4650 043d 70747273 		.ascii	"ptrsize\000"
 4650      697A6500 
 4651              	.LASF211:
 4652 0445 63616E73 		.ascii	"canstate_t\000"
 4652      74617465 
 4652      5F7400
 4653              	.LASF209:
 4654 0450 43414E5F 		.ascii	"CAN_READY\000"
 4654      52454144 
 4654      5900
 4655              	.LASF147:
 4656 045a 6F66665F 		.ascii	"off_time\000"
 4656      74696D65 
 4656      00
 4657              	.LASF191:
 4658 0463 646D615F 		.ascii	"dma_func\000"
 4658      66756E63 
 4658      00
 4659              	.LASF28:
 4660 046c 636E745F 		.ascii	"cnt_t\000"
 4660      7400
 4661              	.LASF250:
 4662 0472 72786368 		.ascii	"rxchar_cb\000"
 4662      61725F63 
ARM GAS  C:\Users\Pearl\AppData\Local\Temp\cc4hQ0L2.s 			page 87


 4662      6200
 4663              	.LASF170:
 4664 047c 64796E5F 		.ascii	"dyn_element_t\000"
 4664      656C656D 
 4664      656E745F 
 4664      7400
 4665              	.LASF252:
 4666 048a 73706565 		.ascii	"speed\000"
 4666      6400
 4667              	.LASF123:
 4668 0490 77746D74 		.ascii	"wtmtxp\000"
 4668      787000
 4669              	.LASF55:
 4670 0497 63685F72 		.ascii	"ch_ready_list\000"
 4670      65616479 
 4670      5F6C6973 
 4670      7400
 4671              	.LASF178:
 4672 04a5 73656D5F 		.ascii	"sem_pool\000"
 4672      706F6F6C 
 4672      00
 4673              	.LASF200:
 4674 04ae 50434461 		.ascii	"PCData\000"
 4674      746100
 4675              	.LASF160:
 4676 04b5 6E657874 		.ascii	"nextmem\000"
 4676      6D656D00 
 4677              	.LASF255:
 4678 04bd 52435F55 		.ascii	"RC_UNCONNECTED\000"
 4678      4E434F4E 
 4678      4E454354 
 4678      454400
 4679              	.LASF14:
 4680 04cc 5F5F7569 		.ascii	"__uint64_t\000"
 4680      6E743634 
 4680      5F7400
 4681              	.LASF143:
 4682 04d7 6F66665F 		.ascii	"off_state\000"
 4682      73746174 
 4682      6500
 4683              	.LASF13:
 4684 04e1 6C6F6E67 		.ascii	"long unsigned int\000"
 4684      20756E73 
 4684      69676E65 
 4684      6420696E 
 4684      7400
 4685              	.LASF136:
 4686 04f3 74687265 		.ascii	"threadsize\000"
 4686      61647369 
 4686      7A6500
 4687              	.LASF284:
 4688 04fe 63685379 		.ascii	"chSysLock\000"
 4688      734C6F63 
 4688      6B00
 4689              	.LASF253:
 4690 0508 55415254 		.ascii	"UARTConfig\000"
 4690      436F6E66 
ARM GAS  C:\Users\Pearl\AppData\Local\Temp\cc4hQ0L2.s 			page 88


 4690      696700
 4691              	.LASF77:
 4692 0513 53797374 		.ascii	"SystemCoreClock\000"
 4692      656D436F 
 4692      7265436C 
 4692      6F636B00 
 4693              	.LASF125:
 4694 0523 63685F73 		.ascii	"ch_semaphore\000"
 4694      656D6170 
 4694      686F7265 
 4694      00
 4695              	.LASF186:
 4696 0530 73686966 		.ascii	"shift\000"
 4696      7400
 4697              	.LASF183:
 4698 0536 6368616E 		.ascii	"channel\000"
 4698      6E656C00 
 4699              	.LASF48:
 4700 053e 63685F74 		.ascii	"ch_thread\000"
 4700      68726561 
 4700      6400
 4701              	.LASF62:
 4702 0548 76697274 		.ascii	"virtual_timers_list_t\000"
 4702      75616C5F 
 4702      74696D65 
 4702      72735F6C 
 4702      6973745F 
 4703              	.LASF129:
 4704 055e 63685F69 		.ascii	"ch_idle_thread_wa\000"
 4704      646C655F 
 4704      74687265 
 4704      61645F77 
 4704      6100
 4705              	.LASF194:
 4706 0570 5F73746D 		.ascii	"_stm32_dma_streams\000"
 4706      33325F64 
 4706      6D615F73 
 4706      74726561 
 4706      6D7300
 4707              	.LASF266:
 4708 0583 75617274 		.ascii	"uart_dbus_thread_handler\000"
 4708      5F646275 
 4708      735F7468 
 4708      72656164 
 4708      5F68616E 
 4709              	.LASF248:
 4710 059c 7478656E 		.ascii	"txend2_cb\000"
 4710      64325F63 
 4710      6200
 4711              	.LASF180:
 4712 05a6 6669666F 		.ascii	"fifo_list\000"
 4712      5F6C6973 
 4712      7400
 4713              	.LASF58:
 4714 05b0 76697274 		.ascii	"virtual_timer_t\000"
 4714      75616C5F 
 4714      74696D65 
ARM GAS  C:\Users\Pearl\AppData\Local\Temp\cc4hQ0L2.s 			page 89


 4714      725F7400 
 4715              	.LASF54:
 4716 05c0 72656164 		.ascii	"ready_list_t\000"
 4716      795F6C69 
 4716      73745F74 
 4716      00
 4717              	.LASF34:
 4718 05cd 6F6C6465 		.ascii	"older\000"
 4718      7200
 4719              	.LASF246:
 4720 05d3 75617274 		.ascii	"uartecb_t\000"
 4720      6563625F 
 4720      7400
 4721              	.LASF44:
 4722 05dd 7265616C 		.ascii	"realprio\000"
 4722      7072696F 
 4722      00
 4723              	.LASF29:
 4724 05e6 75636E74 		.ascii	"ucnt_t\000"
 4724      5F7400
 4725              	.LASF142:
 4726 05ed 6F66665F 		.ascii	"off_stklimit\000"
 4726      73746B6C 
 4726      696D6974 
 4726      00
 4727              	.LASF164:
 4728 05fa 706F6F6C 		.ascii	"pool_header\000"
 4728      5F686561 
 4728      64657200 
 4729              	.LASF223:
 4730 0606 55415254 		.ascii	"UART_UNINIT\000"
 4730      5F554E49 
 4730      4E495400 
 4731              	.LASF49:
 4732 0612 63685F74 		.ascii	"ch_threads_list\000"
 4732      68726561 
 4732      64735F6C 
 4732      69737400 
 4733              	.LASF233:
 4734 0622 55415254 		.ascii	"UART_RX_COMPLETE\000"
 4734      5F52585F 
 4734      434F4D50 
 4734      4C455445 
 4734      00
 4735              	.LASF257:
 4736 0633 52435F55 		.ascii	"RC_UNLOCKING\000"
 4736      4E4C4F43 
 4736      4B494E47 
 4736      00
 4737              	.LASF243:
 4738 0640 72786275 		.ascii	"rxbuf\000"
 4738      6600
 4739              	.LASF241:
 4740 0646 646D6172 		.ascii	"dmarx\000"
 4740      7800
 4741              	.LASF276:
 4742 064c 52435F72 		.ascii	"RC_reset\000"
ARM GAS  C:\Users\Pearl\AppData\Local\Temp\cc4hQ0L2.s 			page 90


 4742      65736574 
 4742      00
 4743              	.LASF12:
 4744 0655 5F5F7569 		.ascii	"__uint32_t\000"
 4744      6E743332 
 4744      5F7400
 4745              	.LASF43:
 4746 0660 6D74786C 		.ascii	"mtxlist\000"
 4746      69737400 
 4747              	.LASF1:
 4748 0668 6C6F6E67 		.ascii	"long long int\000"
 4748      206C6F6E 
 4748      6720696E 
 4748      7400
 4749              	.LASF208:
 4750 0676 43414E5F 		.ascii	"CAN_STARTING\000"
 4750      53544152 
 4750      54494E47 
 4750      00
 4751              	.LASF74:
 4752 0683 73797369 		.ascii	"sysinterval_t\000"
 4752      6E746572 
 4752      76616C5F 
 4752      7400
 4753              	.LASF286:
 4754 0691 706F7274 		.ascii	"port_lock_from_isr\000"
 4754      5F6C6F63 
 4754      6B5F6672 
 4754      6F6D5F69 
 4754      737200
 4755              	.LASF173:
 4756 06a4 63685F6F 		.ascii	"ch_objects_factory\000"
 4756      626A6563 
 4756      74735F66 
 4756      6163746F 
 4756      727900
 4757              	.LASF293:
 4758 06b7 63685468 		.ascii	"chThdCreateStatic\000"
 4758      64437265 
 4758      61746553 
 4758      74617469 
 4758      6300
 4759              	.LASF300:
 4760 06c9 433A5C55 		.ascii	"C:\\Users\\Pearl\\RM\\assignment2-master\000"
 4760      73657273 
 4760      5C506561 
 4760      726C5C52 
 4760      4D5C6173 
 4761              	.LASF301:
 4762 06ee 52435F69 		.ascii	"RC_init\000"
 4762      6E697400 
 4763              	.LASF111:
 4764 06f6 47545052 		.ascii	"GTPR\000"
 4764      00
 4765              	.LASF157:
 4766 06fb 6576656E 		.ascii	"event_source_t\000"
 4766      745F736F 
ARM GAS  C:\Users\Pearl\AppData\Local\Temp\cc4hQ0L2.s 			page 91


 4766      75726365 
 4766      5F7400
 4767              	.LASF166:
 4768 070a 616C6967 		.ascii	"align\000"
 4768      6E00
 4769              	.LASF76:
 4770 0710 49544D5F 		.ascii	"ITM_RxBuffer\000"
 4770      52784275 
 4770      66666572 
 4770      00
 4771              	.LASF265:
 4772 071d 52435F43 		.ascii	"RC_Ctl\000"
 4772      746C00
 4773              	.LASF260:
 4774 0724 6368616E 		.ascii	"channel0\000"
 4774      6E656C30 
 4774      00
 4775              	.LASF261:
 4776 072d 6368616E 		.ascii	"channel1\000"
 4776      6E656C31 
 4776      00
 4777              	.LASF262:
 4778 0736 6368616E 		.ascii	"channel2\000"
 4778      6E656C32 
 4778      00
 4779              	.LASF263:
 4780 073f 6368616E 		.ascii	"channel3\000"
 4780      6E656C33 
 4780      00
 4781              	.LASF199:
 4782 0748 50424461 		.ascii	"PBData\000"
 4782      746100
 4783              	.LASF271:
 4784 074f 74696D65 		.ascii	"timeout\000"
 4784      6F757400 
 4785              	.LASF240:
 4786 0757 646D616D 		.ascii	"dmamode\000"
 4786      6F646500 
 4787              	.LASF206:
 4788 075f 43414E5F 		.ascii	"CAN_UNINIT\000"
 4788      554E494E 
 4788      495400
 4789              	.LASF272:
 4790 076a 636F756E 		.ascii	"count\000"
 4790      7400
 4791              	.LASF235:
 4792 0770 75617274 		.ascii	"uartflags_t\000"
 4792      666C6167 
 4792      735F7400 
 4793              	.LASF242:
 4794 077c 646D6174 		.ascii	"dmatx\000"
 4794      7800
 4795              	.LASF210:
 4796 0782 43414E5F 		.ascii	"CAN_SLEEP\000"
 4796      534C4545 
 4796      5000
 4797              	.LASF139:
ARM GAS  C:\Users\Pearl\AppData\Local\Temp\cc4hQ0L2.s 			page 92


 4798 078c 6F66665F 		.ascii	"off_newer\000"
 4798      6E657765 
 4798      7200
 4799              	.LASF187:
 4800 0796 73656C66 		.ascii	"selfindex\000"
 4800      696E6465 
 4800      7800
 4801              	.LASF251:
 4802 07a0 72786572 		.ascii	"rxerr_cb\000"
 4802      725F6362 
 4802      00
 4803              	.LASF0:
 4804 07a9 756E7369 		.ascii	"unsigned int\000"
 4804      676E6564 
 4804      20696E74 
 4804      00
 4805              	.LASF190:
 4806 07b6 73746D33 		.ascii	"stm32_dmaisr_t\000"
 4806      325F646D 
 4806      61697372 
 4806      5F7400
 4807              	.LASF95:
 4808 07c5 464D3152 		.ascii	"FM1R\000"
 4808      00
 4809              	.LASF86:
 4810 07ca 52444852 		.ascii	"RDHR\000"
 4810      00
 4811              	.LASF107:
 4812 07cf 434D4152 		.ascii	"CMAR\000"
 4812      00
 4813              	.LASF82:
 4814 07d4 54444852 		.ascii	"TDHR\000"
 4814      00
 4815              	.LASF275:
 4816 07d9 75617274 		.ascii	"uartp\000"
 4816      7000
 4817              	.LASF56:
 4818 07df 63757272 		.ascii	"current\000"
 4818      656E7400 
 4819              	.LASF218:
 4820 07e7 6572726F 		.ascii	"error_event\000"
 4820      725F6576 
 4820      656E7400 
 4821              	.LASF104:
 4822 07f3 43414E5F 		.ascii	"CAN_TypeDef\000"
 4822      54797065 
 4822      44656600 
 4823              	.LASF75:
 4824 07ff 74696D65 		.ascii	"time_conv_t\000"
 4824      5F636F6E 
 4824      765F7400 
 4825              	.LASF193:
 4826 080b 646D615F 		.ascii	"dma_isr_redir_t\000"
 4826      6973725F 
 4826      72656469 
 4826      725F7400 
 4827              	.LASF298:
ARM GAS  C:\Users\Pearl\AppData\Local\Temp\cc4hQ0L2.s 			page 93


 4828 081b 474E5520 		.ascii	"GNU C11 7.2.1 20170904 (release) [ARM/embedded-7-br"
 4828      43313120 
 4828      372E322E 
 4828      31203230 
 4828      31373039 
 4829 084e 616E6368 		.ascii	"anch revision 255204] -mcpu=cortex-m3 -mthumb -ggdb"
 4829      20726576 
 4829      6973696F 
 4829      6E203235 
 4829      35323034 
 4830 0881 202D4F32 		.ascii	" -O2 -fomit-frame-pointer -falign-functions=16 -ffu"
 4830      202D666F 
 4830      6D69742D 
 4830      6672616D 
 4830      652D706F 
 4831 08b4 6E637469 		.ascii	"nction-sections -fdata-sections -fno-common\000"
 4831      6F6E2D73 
 4831      65637469 
 4831      6F6E7320 
 4831      2D666461 
 4832              	.LASF103:
 4833 08e0 7346696C 		.ascii	"sFilterRegister\000"
 4833      74657252 
 4833      65676973 
 4833      74657200 
 4834              	.LASF270:
 4835 08f0 72786D73 		.ascii	"rxmsg\000"
 4835      6700
 4836              	.LASF205:
 4837 08f6 5F70616C 		.ascii	"_pal_events\000"
 4837      5F657665 
 4837      6E747300 
 4838              	.LASF30:
 4839 0902 74687265 		.ascii	"thread_t\000"
 4839      61645F74 
 4839      00
 4840              	.LASF2:
 4841 090b 6C6F6E67 		.ascii	"long double\000"
 4841      20646F75 
 4841      626C6500 
 4842              	.LASF155:
 4843 0917 77666C61 		.ascii	"wflags\000"
 4843      677300
 4844              	.LASF46:
 4845 091e 74687265 		.ascii	"thread_reference_t\000"
 4845      61645F72 
 4845      65666572 
 4845      656E6365 
 4845      5F7400
 4846              	.LASF121:
 4847 0931 73656E74 		.ascii	"sentmsg\000"
 4847      6D736700 
 4848              	.LASF116:
 4849 0939 706F7274 		.ascii	"port_intctx\000"
 4849      5F696E74 
 4849      63747800 
 4850              	.LASF181:
ARM GAS  C:\Users\Pearl\AppData\Local\Temp\cc4hQ0L2.s 			page 94


 4851 0945 6F626A65 		.ascii	"objects_factory_t\000"
 4851      6374735F 
 4851      66616374 
 4851      6F72795F 
 4851      7400
 4852              	.LASF176:
 4853 0957 6275665F 		.ascii	"buf_list\000"
 4853      6C697374 
 4853      00
 4854              	.LASF285:
 4855 0960 706F7274 		.ascii	"port_unlock_from_isr\000"
 4855      5F756E6C 
 4855      6F636B5F 
 4855      66726F6D 
 4855      5F697372 
 4856              	.LASF267:
 4857 0975 72635F73 		.ascii	"rc_state\000"
 4857      74617465 
 4857      00
 4858              	.LASF184:
 4859 097e 636D6173 		.ascii	"cmask\000"
 4859      6B00
 4860              	.LASF108:
 4861 0984 444D415F 		.ascii	"DMA_Channel_TypeDef\000"
 4861      4368616E 
 4861      6E656C5F 
 4861      54797065 
 4861      44656600 
 4862              	.LASF78:
 4863 0998 41484250 		.ascii	"AHBPrescTable\000"
 4863      72657363 
 4863      5461626C 
 4863      6500
 4864              	.LASF59:
 4865 09a6 63685F76 		.ascii	"ch_virtual_timer\000"
 4865      69727475 
 4865      616C5F74 
 4865      696D6572 
 4865      00
 4866              	.LASF132:
 4867 09b7 73697A65 		.ascii	"size\000"
 4867      00
 4868              	.LASF15:
 4869 09bc 6C6F6E67 		.ascii	"long long unsigned int\000"
 4869      206C6F6E 
 4869      6720756E 
 4869      7369676E 
 4869      65642069 
 4870              	.LASF198:
 4871 09d3 50414461 		.ascii	"PAData\000"
 4871      746100
 4872              	.LASF17:
 4873 09da 75696E74 		.ascii	"uint16_t\000"
 4873      31365F74 
 4873      00
 4874              	.LASF232:
 4875 09e3 55415254 		.ascii	"UART_RX_ACTIVE\000"
ARM GAS  C:\Users\Pearl\AppData\Local\Temp\cc4hQ0L2.s 			page 95


 4875      5F52585F 
 4875      41435449 
 4875      564500
 4876              	.LASF141:
 4877 09f2 6F66665F 		.ascii	"off_name\000"
 4877      6E616D65 
 4877      00
 4878              	.LASF25:
 4879 09fb 6D73675F 		.ascii	"msg_t\000"
 4879      7400
 4880              	.LASF52:
 4881 0a01 63685F74 		.ascii	"ch_threads_queue\000"
 4881      68726561 
 4881      64735F71 
 4881      75657565 
 4881      00
 4882              	.LASF27:
 4883 0a12 6576656E 		.ascii	"eventflags_t\000"
 4883      74666C61 
 4883      67735F74 
 4883      00
 4884              	.LASF60:
 4885 0a1f 64656C74 		.ascii	"delta\000"
 4885      6100
 4886              	.LASF290:
 4887 0a25 62617365 		.ascii	"basePri\000"
 4887      50726900 
 4888              	.LASF85:
 4889 0a2d 52444C52 		.ascii	"RDLR\000"
 4889      00
 4890              	.LASF87:
 4891 0a32 43414E5F 		.ascii	"CAN_FIFOMailBox_TypeDef\000"
 4891      4649464F 
 4891      4D61696C 
 4891      426F785F 
 4891      54797065 
 4892              	.LASF39:
 4893 0a4a 72656673 		.ascii	"refs\000"
 4893      00
 4894              	.LASF31:
 4895 0a4f 71756575 		.ascii	"queue\000"
 4895      6500
 4896              	.LASF81:
 4897 0a55 54444C52 		.ascii	"TDLR\000"
 4897      00
 4898              	.LASF188:
 4899 0a5a 76656374 		.ascii	"vector\000"
 4899      6F7200
 4900              	.LASF182:
 4901 0a61 63685F66 		.ascii	"ch_factory\000"
 4901      6163746F 
 4901      727900
 4902              	.LASF215:
 4903 0a6c 72787175 		.ascii	"rxqueue\000"
 4903      65756500 
 4904              	.LASF179:
 4905 0a74 6D62785F 		.ascii	"mbx_list\000"
ARM GAS  C:\Users\Pearl\AppData\Local\Temp\cc4hQ0L2.s 			page 96


 4905      6C697374 
 4905      00
 4906              	.LASF72:
 4907 0a7d 6D61696E 		.ascii	"mainthread\000"
 4907      74687265 
 4907      616400
 4908              	.LASF133:
 4909 0a88 76657273 		.ascii	"version\000"
 4909      696F6E00 
 4910              	.LASF289:
 4911 0a90 5F5F7365 		.ascii	"__set_BASEPRI\000"
 4911      745F4241 
 4911      53455052 
 4911      4900
 4912              	.LASF229:
 4913 0a9e 55415254 		.ascii	"UART_TX_COMPLETE\000"
 4913      5F54585F 
 4913      434F4D50 
 4913      4C455445 
 4913      00
 4914              	.LASF234:
 4915 0aaf 75617274 		.ascii	"uartrxstate_t\000"
 4915      72787374 
 4915      6174655F 
 4915      7400
 4916              	.LASF36:
 4917 0abd 77616261 		.ascii	"wabase\000"
 4917      736500
 4918              	.LASF245:
 4919 0ac4 75617274 		.ascii	"uartccb_t\000"
 4919      6363625F 
 4919      7400
 4920              	.LASF168:
 4921 0ace 6D656D6F 		.ascii	"memory_pool_t\000"
 4921      72795F70 
 4921      6F6F6C5F 
 4921      7400
 4922              	.LASF70:
 4923 0adc 726C6973 		.ascii	"rlist\000"
 4923      7400
 4924              	.LASF21:
 4925 0ae2 746D6F64 		.ascii	"tmode_t\000"
 4925      655F7400 
 4926              	.LASF185:
 4927 0aea 64756D6D 		.ascii	"dummy\000"
 4927      7900
 4928              	.LASF247:
 4929 0af0 7478656E 		.ascii	"txend1_cb\000"
 4929      64315F63 
 4929      6200
 4930              	.LASF231:
 4931 0afa 55415254 		.ascii	"UART_RX_IDLE\000"
 4931      5F52585F 
 4931      49444C45 
 4931      00
 4932              	.LASF97:
 4933 0b07 46533152 		.ascii	"FS1R\000"
ARM GAS  C:\Users\Pearl\AppData\Local\Temp\cc4hQ0L2.s 			page 97


 4933      00
 4934              	.LASF35:
 4935 0b0c 6E616D65 		.ascii	"name\000"
 4935      00
 4936              	.LASF288:
 4937 0b11 706F7274 		.ascii	"port_lock\000"
 4937      5F6C6F63 
 4937      6B00
 4938              	.LASF153:
 4939 0b1b 6C697374 		.ascii	"listener\000"
 4939      656E6572 
 4939      00
 4940              	.LASF79:
 4941 0b24 41504250 		.ascii	"APBPrescTable\000"
 4941      72657363 
 4941      5461626C 
 4941      6500
 4942              	.LASF83:
 4943 0b32 43414E5F 		.ascii	"CAN_TxMailBox_TypeDef\000"
 4943      54784D61 
 4943      696C426F 
 4943      785F5479 
 4943      70654465 
 4944              	.LASF195:
 4945 0b48 5F73746D 		.ascii	"_stm32_dma_isr_redir\000"
 4945      33325F64 
 4945      6D615F69 
 4945      73725F72 
 4945      65646972 
 4946              	.LASF7:
 4947 0b5d 73686F72 		.ascii	"short int\000"
 4947      7420696E 
 4947      7400
 4948              	.LASF156:
 4949 0b67 6576656E 		.ascii	"event_source\000"
 4949      745F736F 
 4949      75726365 
 4949      00
 4950              	.LASF20:
 4951 0b74 75696E74 		.ascii	"uint64_t\000"
 4951      36345F74 
 4951      00
 4952              	.LASF61:
 4953 0b7d 66756E63 		.ascii	"func\000"
 4953      00
 4954              	.LASF126:
 4955 0b82 63685F6D 		.ascii	"ch_mutex\000"
 4955      75746578 
 4955      00
 4956              	.LASF279:
 4957 0b8b 63685468 		.ascii	"chThdGetSelfX\000"
 4957      64476574 
 4957      53656C66 
 4957      5800
 4958              	.LASF99:
 4959 0b99 46464131 		.ascii	"FFA1R\000"
 4959      5200
ARM GAS  C:\Users\Pearl\AppData\Local\Temp\cc4hQ0L2.s 			page 98


 4960              	.LASF41:
 4961 0b9f 6D736771 		.ascii	"msgqueue\000"
 4961      75657565 
 4961      00
 4962              	.LASF214:
 4963 0ba8 74787175 		.ascii	"txqueue\000"
 4963      65756500 
 4964              	.LASF226:
 4965 0bb0 75617274 		.ascii	"uartstate_t\000"
 4965      73746174 
 4965      655F7400 
 4966              	.LASF66:
 4967 0bbc 63685F73 		.ascii	"ch_system_debug\000"
 4967      79737465 
 4967      6D5F6465 
 4967      62756700 
 4968              	.LASF269:
 4969 0bcc 75617274 		.ascii	"uart_dbus_thread_wa\000"
 4969      5F646275 
 4969      735F7468 
 4969      72656164 
 4969      5F776100 
 4970              	.LASF172:
 4971 0be0 64796E5F 		.ascii	"dyn_list_t\000"
 4971      6C697374 
 4971      5F7400
 4972              	.LASF203:
 4973 0beb 50414C43 		.ascii	"PALConfig\000"
 4973      6F6E6669 
 4973      6700
 4974              	.LASF274:
 4975 0bf5 7278656E 		.ascii	"rxend\000"
 4975      6400
 4976              	.LASF192:
 4977 0bfb 646D615F 		.ascii	"dma_param\000"
 4977      70617261 
 4977      6D00
 4978              	.LASF165:
 4979 0c05 6F626A65 		.ascii	"object_size\000"
 4979      63745F73 
 4979      697A6500 
 4980              	.LASF71:
 4981 0c11 76746C69 		.ascii	"vtlist\000"
 4981      737400
 4982              	.LASF40:
 4983 0c18 77616974 		.ascii	"waiting\000"
 4983      696E6700 
 4984              	.LASF150:
 4985 0c20 6D757465 		.ascii	"mutex_t\000"
 4985      785F7400 
 4986              	.LASF23:
 4987 0c28 74726566 		.ascii	"trefs_t\000"
 4987      735F7400 
 4988              	.LASF115:
 4989 0c30 706F7274 		.ascii	"port_context\000"
 4989      5F636F6E 
 4989      74657874 
ARM GAS  C:\Users\Pearl\AppData\Local\Temp\cc4hQ0L2.s 			page 99


 4989      00
 4990              	.LASF47:
 4991 0c3d 74687265 		.ascii	"threads_list_t\000"
 4991      6164735F 
 4991      6C697374 
 4991      5F7400
 4992              	.LASF227:
 4993 0c4c 55415254 		.ascii	"UART_TX_IDLE\000"
 4993      5F54585F 
 4993      49444C45 
 4993      00
 4994              	.LASF244:
 4995 0c59 75617274 		.ascii	"uartcb_t\000"
 4995      63625F74 
 4995      00
 4996              	.LASF69:
 4997 0c62 63685F73 		.ascii	"ch_system\000"
 4997      79737465 
 4997      6D00
 4998              	.LASF33:
 4999 0c6c 6E657765 		.ascii	"newer\000"
 4999      7200
 5000              	.LASF19:
 5001 0c72 75696E74 		.ascii	"uint32_t\000"
 5001      33325F74 
 5001      00
 5002              	.LASF152:
 5003 0c7b 6576656E 		.ascii	"event_listener\000"
 5003      745F6C69 
 5003      7374656E 
 5003      657200
 5004              	.LASF117:
 5005 0c8a 7264796D 		.ascii	"rdymsg\000"
 5005      736700
 5006              	.LASF9:
 5007 0c91 73686F72 		.ascii	"short unsigned int\000"
 5007      7420756E 
 5007      7369676E 
 5007      65642069 
 5007      6E7400
 5008              	.LASF68:
 5009 0ca4 63685F73 		.ascii	"ch_system_t\000"
 5009      79737465 
 5009      6D5F7400 
 5010              	.LASF148:
 5011 0cb0 63686465 		.ascii	"chdebug_t\000"
 5011      6275675F 
 5011      7400
 5012              	.LASF92:
 5013 0cba 7354784D 		.ascii	"sTxMailBox\000"
 5013      61696C42 
 5013      6F7800
 5014              	.LASF135:
 5015 0cc5 74696D65 		.ascii	"timesize\000"
 5015      73697A65 
 5015      00
 5016              	.LASF254:
ARM GAS  C:\Users\Pearl\AppData\Local\Temp\cc4hQ0L2.s 			page 100


 5017 0cce 55415254 		.ascii	"UARTD2\000"
 5017      443200
 5018              	.LASF256:
 5019 0cd5 52435F4C 		.ascii	"RC_LOCKED\000"
 5019      4F434B45 
 5019      4400
 5020              	.LASF10:
 5021 0cdf 5F5F696E 		.ascii	"__int32_t\000"
 5021      7433325F 
 5021      7400
 5022              	.LASF273:
 5023 0ce9 75617274 		.ascii	"uart_dbus_thread\000"
 5023      5F646275 
 5023      735F7468 
 5023      72656164 
 5023      00
 5024              	.LASF163:
 5025 0cfa 63685F6D 		.ascii	"ch_memcore\000"
 5025      656D636F 
 5025      726500
 5026              	.LASF144:
 5027 0d05 6F66665F 		.ascii	"off_flags\000"
 5027      666C6167 
 5027      7300
 5028              	.LASF278:
 5029 0d0f 63685468 		.ascii	"chThdShouldTerminateX\000"
 5029      6453686F 
 5029      756C6454 
 5029      65726D69 
 5029      6E617465 
 5030              	.LASF282:
 5031 0d25 63685265 		.ascii	"chRegSetThreadName\000"
 5031      67536574 
 5031      54687265 
 5031      61644E61 
 5031      6D6500
 5032              	.LASF207:
 5033 0d38 43414E5F 		.ascii	"CAN_STOP\000"
 5033      53544F50 
 5033      00
 5034              	.LASF154:
 5035 0d41 6576656E 		.ascii	"events\000"
 5035      747300
 5036              	.LASF50:
 5037 0d48 6E657874 		.ascii	"next\000"
 5037      00
 5038              	.LASF283:
 5039 0d4d 63685379 		.ascii	"chSysUnlock\000"
 5039      73556E6C 
 5039      6F636B00 
 5040              	.LASF84:
 5041 0d59 52445452 		.ascii	"RDTR\000"
 5041      00
 5042              	.LASF53:
 5043 0d5e 70726576 		.ascii	"prev\000"
 5043      00
 5044              	.LASF171:
ARM GAS  C:\Users\Pearl\AppData\Local\Temp\cc4hQ0L2.s 			page 101


 5045 0d63 63685F64 		.ascii	"ch_dyn_list\000"
 5045      796E5F6C 
 5045      69737400 
 5046              	.LASF130:
 5047 0d6f 6964656E 		.ascii	"identifier\000"
 5047      74696669 
 5047      657200
 5048              	.LASF80:
 5049 0d7a 54445452 		.ascii	"TDTR\000"
 5049      00
 5050              	.LASF222:
 5051 0d7f 43414E44 		.ascii	"CAND1\000"
 5051      3100
 5052              	.LASF217:
 5053 0d85 7478656D 		.ascii	"txempty_event\000"
 5053      7074795F 
 5053      6576656E 
 5053      7400
 5054              		.ident	"GCC: (GNU Tools for Arm Embedded Processors 7-2017-q4-major) 7.2.1 20170904 (release) [ARM
ARM GAS  C:\Users\Pearl\AppData\Local\Temp\cc4hQ0L2.s 			page 102


DEFINED SYMBOLS
                            *ABS*:00000000 dbus.c
C:\Users\Pearl\AppData\Local\Temp\cc4hQ0L2.s:16     .text.uart_dbus_thread:00000000 $t
C:\Users\Pearl\AppData\Local\Temp\cc4hQ0L2.s:23     .text.uart_dbus_thread:00000000 uart_dbus_thread
C:\Users\Pearl\AppData\Local\Temp\cc4hQ0L2.s:238    .text.uart_dbus_thread:000000c8 $d
C:\Users\Pearl\AppData\Local\Temp\cc4hQ0L2.s:249    .text.rxend:00000000 $t
C:\Users\Pearl\AppData\Local\Temp\cc4hQ0L2.s:256    .text.rxend:00000000 rxend
C:\Users\Pearl\AppData\Local\Temp\cc4hQ0L2.s:316    .text.rxend:00000018 $d
C:\Users\Pearl\AppData\Local\Temp\cc4hQ0L2.s:321    .text.RC_get:00000000 $t
C:\Users\Pearl\AppData\Local\Temp\cc4hQ0L2.s:329    .text.RC_get:00000000 RC_get
C:\Users\Pearl\AppData\Local\Temp\cc4hQ0L2.s:342    .text.RC_get:00000004 $d
C:\Users\Pearl\AppData\Local\Temp\cc4hQ0L2.s:347    .text.RC_init:00000000 $t
C:\Users\Pearl\AppData\Local\Temp\cc4hQ0L2.s:355    .text.RC_init:00000000 RC_init
C:\Users\Pearl\AppData\Local\Temp\cc4hQ0L2.s:414    .text.RC_init:00000038 $d
C:\Users\Pearl\AppData\Local\Temp\cc4hQ0L2.s:423    .bss.RC_Ctl:00000000 $d
C:\Users\Pearl\AppData\Local\Temp\cc4hQ0L2.s:427    .bss.RC_Ctl:00000000 RC_Ctl
C:\Users\Pearl\AppData\Local\Temp\cc4hQ0L2.s:433    .bss.rc_state:00000000 rc_state
C:\Users\Pearl\AppData\Local\Temp\cc4hQ0L2.s:434    .bss.rc_state:00000000 $d
C:\Users\Pearl\AppData\Local\Temp\cc4hQ0L2.s:436    .bss.rxbuf:00000000 $d
C:\Users\Pearl\AppData\Local\Temp\cc4hQ0L2.s:440    .bss.rxbuf:00000000 rxbuf
C:\Users\Pearl\AppData\Local\Temp\cc4hQ0L2.s:443    .bss.uart_dbus_thread_handler:00000000 $d
C:\Users\Pearl\AppData\Local\Temp\cc4hQ0L2.s:447    .bss.uart_dbus_thread_handler:00000000 uart_dbus_thread_handler
C:\Users\Pearl\AppData\Local\Temp\cc4hQ0L2.s:450    .bss.uart_dbus_thread_wa:00000000 $d
C:\Users\Pearl\AppData\Local\Temp\cc4hQ0L2.s:454    .bss.uart_dbus_thread_wa:00000000 uart_dbus_thread_wa
C:\Users\Pearl\AppData\Local\Temp\cc4hQ0L2.s:457    .data.uart_cfg:00000000 $d
C:\Users\Pearl\AppData\Local\Temp\cc4hQ0L2.s:461    .data.uart_cfg:00000000 uart_cfg
C:\Users\Pearl\AppData\Local\Temp\cc4hQ0L2.s:473    .rodata.uart_dbus_thread.str1.4:00000000 $d

UNDEFINED SYMBOLS
uartStopReceive
uartStartReceive
chThdSuspendTimeoutS
ch
UARTD2
chThdResumeI
uartStart
dmaStreamRelease
chThdCreateStatic
