ARM GAS  C:\Users\Pearl\AppData\Local\Temp\cc4hQ0L2.s 			page 1


   1              		.cpu cortex-m3
   2              		.eabi_attribute 20, 1
   3              		.eabi_attribute 21, 1
   4              		.eabi_attribute 23, 3
   5              		.eabi_attribute 24, 1
   6              		.eabi_attribute 25, 1
   7              		.eabi_attribute 26, 1
   8              		.eabi_attribute 30, 2
   9              		.eabi_attribute 34, 1
  10              		.eabi_attribute 18, 4
  11              		.file	"dbus.c"
  12              		.text
  13              	.Ltext0:
  14              		.cfi_sections	.debug_frame
  15              		.section	.text.uart_dbus_thread,"ax",%progbits
  16              		.align	1
  17              		.p2align 4,,15
  18              		.syntax unified
  19              		.thumb
  20              		.thumb_func
  21              		.fpu softvfp
  22              		.type	uart_dbus_thread, %function
  23              	uart_dbus_thread:
  24              	.LFB257:
  25              		.file 1 "./src/dbus.c"
  26              		.loc 1 78 0
  27              		.cfi_startproc
  28              		@ args = 0, pretend = 0, frame = 0
  29              		@ frame_needed = 0, uses_anonymous_args = 0
  30              	.LVL0:
  31 0000 2DE9F843 		push	{r3, r4, r5, r6, r7, r8, r9, lr}
  32              		.cfi_def_cfa_offset 32
  33              		.cfi_offset 3, -32
  34              		.cfi_offset 4, -28
  35              		.cfi_offset 5, -24
  36              		.cfi_offset 6, -20
  37              		.cfi_offset 7, -16
  38              		.cfi_offset 8, -12
  39              		.cfi_offset 9, -8
  40              		.cfi_offset 14, -4
  41              	.LBB104:
  42              	.LBB105:
  43              		.file 2 ".//os/rt/include/chregistry.h"
  44              		.loc 2 136 0
  45 0004 304D     		ldr	r5, .L11
  46 0006 314A     		ldr	r2, .L11+4
  47 0008 AB69     		ldr	r3, [r5, #24]
  48              	.LBE105:
  49              	.LBE104:
  50              		.loc 1 88 0
  51 000a 314C     		ldr	r4, .L11+8
  52              	.LBB107:
  53              	.LBB106:
  54              		.loc 2 136 0
  55 000c 9A61     		str	r2, [r3, #24]
  56              	.LVL1:
  57              	.LBE106:
ARM GAS  C:\Users\Pearl\AppData\Local\Temp\cc4hQ0L2.s 			page 2


  58              	.LBE107:
  59              		.loc 1 89 0
  60 000e 314F     		ldr	r7, .L11+12
  61              		.loc 1 92 0
  62 0010 314E     		ldr	r6, .L11+16
  63              		.loc 1 86 0
  64 0012 02E0     		b	.L2
  65              	.LVL2:
  66              	.L10:
  67              		.loc 1 100 0
  68 0014 0322     		movs	r2, #3
  69 0016 1A70     		strb	r2, [r3]
  70              	.L5:
  71 0018 AB69     		ldr	r3, [r5, #24]
  72              	.LVL3:
  73              	.L2:
  74              		.loc 1 86 0
  75 001a 93F82130 		ldrb	r3, [r3, #33]	@ zero_extendqisi2
  76 001e 03F00403 		and	r3, r3, #4
  77 0022 03F0FF08 		and	r8, r3, #255
  78 0026 002B     		cmp	r3, #0
  79 0028 4CD1     		bne	.L9
  80              		.loc 1 88 0
  81 002a 2046     		mov	r0, r4
  82 002c FFF7FEFF 		bl	uartStopReceive
  83              	.LVL4:
  84              		.loc 1 89 0
  85 0030 284A     		ldr	r2, .L11+12
  86 0032 1221     		movs	r1, #18
  87 0034 2046     		mov	r0, r4
  88 0036 FFF7FEFF 		bl	uartStartReceive
  89              	.LVL5:
  90              	.LBB108:
  91              	.LBB109:
  92              	.LBB110:
  93              	.LBB111:
  94              		.file 3 ".//os/common/ext/ARM/CMSIS/Core/Include/cmsis_gcc.h"
  95              		.loc 3 493 0
  96 003a 4FF02009 		mov	r9, #32
  97              		.syntax unified
  98              	@ 493 ".//os/common/ext/ARM/CMSIS/Core/Include/cmsis_gcc.h" 1
  99 003e 89F31188 		MSR basepri, r9
 100              	@ 0 "" 2
 101              	.LVL6:
 102              		.thumb
 103              		.syntax unified
 104              	.LBE111:
 105              	.LBE110:
 106              	.LBE109:
 107              	.LBE108:
 108              		.loc 1 92 0
 109 0042 4FF0FF31 		mov	r1, #-1
 110 0046 3046     		mov	r0, r6
 111 0048 FFF7FEFF 		bl	chThdSuspendTimeoutS
 112              	.LVL7:
 113              	.LBB112:
 114              	.LBB113:
ARM GAS  C:\Users\Pearl\AppData\Local\Temp\cc4hQ0L2.s 			page 3


 115              	.LBB114:
 116              	.LBB115:
 117              	.LBB116:
 118              		.loc 3 493 0
 119              		.syntax unified
 120              	@ 493 ".//os/common/ext/ARM/CMSIS/Core/Include/cmsis_gcc.h" 1
 121 004c 88F31188 		MSR basepri, r8
 122              	@ 0 "" 2
 123              	.LVL8:
 124              		.thumb
 125              		.syntax unified
 126              	.LBE116:
 127              	.LBE115:
 128              	.LBE114:
 129              	.LBE113:
 130              	.LBE112:
 131              		.loc 1 97 0
 132 0050 224B     		ldr	r3, .L11+20
 133 0052 1A78     		ldrb	r2, [r3]	@ zero_extendqisi2
 134 0054 002A     		cmp	r2, #0
 135 0056 DDD0     		beq	.L10
 136              	.LVL9:
 137              	.LBB117:
 138              	.LBB118:
 139              	.LBB119:
 140              	.LBB120:
 141              		.loc 3 493 0
 142              		.syntax unified
 143              	@ 493 ".//os/common/ext/ARM/CMSIS/Core/Include/cmsis_gcc.h" 1
 144 0058 89F31188 		MSR basepri, r9
 145              	@ 0 "" 2
 146              	.LVL10:
 147              		.thumb
 148              		.syntax unified
 149              	.LBE120:
 150              	.LBE119:
 151              	.LBE118:
 152              	.LBE117:
 153              	.LBB121:
 154              	.LBB122:
 155              		.loc 1 25 0
 156 005c B978     		ldrb	r1, [r7, #2]	@ zero_extendqisi2
 157              		.loc 1 26 0
 158 005e F878     		ldrb	r0, [r7, #3]	@ zero_extendqisi2
 159 0060 4FEA911E 		lsr	lr, r1, #6
 160              		.loc 1 24 0
 161 0064 7B78     		ldrb	r3, [r7, #1]	@ zero_extendqisi2
 162              		.loc 1 27 0
 163 0066 7A79     		ldrb	r2, [r7, #5]	@ zero_extendqisi2
 164              		.loc 1 26 0
 165 0068 97F80480 		ldrb	r8, [r7, #4]	@ zero_extendqisi2
 166 006c 4EEA800E 		orr	lr, lr, r0, lsl #2
 167              		.loc 1 24 0
 168 0070 3878     		ldrb	r0, [r7]	@ zero_extendqisi2
 169              		.loc 1 25 0
 170 0072 4901     		lsls	r1, r1, #5
 171              		.loc 1 24 0
ARM GAS  C:\Users\Pearl\AppData\Local\Temp\cc4hQ0L2.s 			page 4


 172 0074 DFF868C0 		ldr	ip, .L11+24
 173              		.loc 1 26 0
 174 0078 4EEA882E 		orr	lr, lr, r8, lsl #10
 175              		.loc 1 25 0
 176 007c 41EAD301 		orr	r1, r1, r3, lsr #3
 177              		.loc 1 24 0
 178 0080 40EA0320 		orr	r0, r0, r3, lsl #8
 179              		.loc 1 27 0
 180 0084 D301     		lsls	r3, r2, #7
 181 0086 43EA5803 		orr	r3, r3, r8, lsr #1
 182              		.loc 1 28 0
 183 008a 1209     		lsrs	r2, r2, #4
 184              		.loc 1 26 0
 185 008c CEF30A0E 		ubfx	lr, lr, #0, #11
 186              		.loc 1 27 0
 187 0090 C3F30A03 		ubfx	r3, r3, #0, #11
 188              		.loc 1 25 0
 189 0094 C1F30A01 		ubfx	r1, r1, #0, #11
 190              		.loc 1 24 0
 191 0098 C0F30A00 		ubfx	r0, r0, #0, #11
 192              		.loc 1 26 0
 193 009c ACF804E0 		strh	lr, [ip, #4]	@ movhi
 194              		.loc 1 28 0
 195 00a0 4FEAA20E 		asr	lr, r2, #2
 196              		.loc 1 29 0
 197 00a4 02F00302 		and	r2, r2, #3
 198              		.loc 1 27 0
 199 00a8 ACF80630 		strh	r3, [ip, #6]	@ movhi
 200              		.loc 1 25 0
 201 00ac ACF80210 		strh	r1, [ip, #2]	@ movhi
 202              		.loc 1 24 0
 203 00b0 ACF80000 		strh	r0, [ip]	@ movhi
 204              		.loc 1 28 0
 205 00b4 8CF808E0 		strb	lr, [ip, #8]
 206              		.loc 1 29 0
 207 00b8 8CF80920 		strb	r2, [ip, #9]
 208              	.LVL11:
 209              	.LBE122:
 210              	.LBE121:
 211              	.LBB123:
 212              	.LBB124:
 213              	.LBB125:
 214              	.LBB126:
 215              	.LBB127:
 216              		.loc 3 493 0
 217 00bc 0023     		movs	r3, #0
 218              		.syntax unified
 219              	@ 493 ".//os/common/ext/ARM/CMSIS/Core/Include/cmsis_gcc.h" 1
 220 00be 83F31188 		MSR basepri, r3
 221              	@ 0 "" 2
 222              	.LVL12:
 223              		.thumb
 224              		.syntax unified
 225 00c2 A9E7     		b	.L5
 226              	.LVL13:
 227              	.L9:
 228              	.LBE127:
ARM GAS  C:\Users\Pearl\AppData\Local\Temp\cc4hQ0L2.s 			page 5


 229              	.LBE126:
 230              	.LBE125:
 231              	.LBE124:
 232              	.LBE123:
 233              		.loc 1 116 0
 234 00c4 BDE8F883 		pop	{r3, r4, r5, r6, r7, r8, r9, pc}
 235              	.L12:
 236              		.align	2
 237              	.L11:
 238 00c8 00000000 		.word	ch
 239 00cc 00000000 		.word	.LC0
 240 00d0 00000000 		.word	UARTD2
 241 00d4 00000000 		.word	.LANCHOR0
 242 00d8 00000000 		.word	.LANCHOR1
 243 00dc 00000000 		.word	.LANCHOR2
 244 00e0 00000000 		.word	.LANCHOR3
 245              		.cfi_endproc
 246              	.LFE257:
 247              		.size	uart_dbus_thread, .-uart_dbus_thread
 248              		.section	.text.rxend,"ax",%progbits
 249              		.align	1
 250              		.p2align 4,,15
 251              		.syntax unified
 252              		.thumb
 253              		.thumb_func
 254              		.fpu softvfp
 255              		.type	rxend, %function
 256              	rxend:
 257              	.LFB254:
 258              		.loc 1 36 0
 259              		.cfi_startproc
 260              		@ args = 0, pretend = 0, frame = 0
 261              		@ frame_needed = 0, uses_anonymous_args = 0
 262              	.LVL14:
 263 0000 08B5     		push	{r3, lr}
 264              		.cfi_def_cfa_offset 8
 265              		.cfi_offset 3, -8
 266              		.cfi_offset 14, -4
 267              	.LBB128:
 268              	.LBB129:
 269              	.LBB130:
 270              	.LBB131:
 271              	.LBB132:
 272              		.loc 3 493 0
 273 0002 2023     		movs	r3, #32
 274              		.syntax unified
 275              	@ 493 ".//os/common/ext/ARM/CMSIS/Core/Include/cmsis_gcc.h" 1
 276 0004 83F31188 		MSR basepri, r3
 277              	@ 0 "" 2
 278              	.LVL15:
 279              		.thumb
 280              		.syntax unified
 281              	.LBE132:
 282              	.LBE131:
 283              	.LBE130:
 284              	.LBE129:
 285              	.LBE128:
ARM GAS  C:\Users\Pearl\AppData\Local\Temp\cc4hQ0L2.s 			page 6


 286              		.loc 1 38 0
 287 0008 0021     		movs	r1, #0
 288 000a 0348     		ldr	r0, .L15
 289              	.LVL16:
 290 000c FFF7FEFF 		bl	chThdResumeI
 291              	.LVL17:
 292              	.LBB133:
 293              	.LBB134:
 294              	.LBB135:
 295              	.LBB136:
 296              	.LBB137:
 297              		.loc 3 493 0
 298 0010 0023     		movs	r3, #0
 299              		.syntax unified
 300              	@ 493 ".//os/common/ext/ARM/CMSIS/Core/Include/cmsis_gcc.h" 1
 301 0012 83F31188 		MSR basepri, r3
 302              	@ 0 "" 2
 303              	.LVL18:
 304              		.thumb
 305              		.syntax unified
 306              	.LBE137:
 307              	.LBE136:
 308              	.LBE135:
 309              	.LBE134:
 310              	.LBE133:
 311              		.loc 1 40 0
 312 0016 08BD     		pop	{r3, pc}
 313              	.L16:
 314              		.align	2
 315              	.L15:
 316 0018 00000000 		.word	.LANCHOR1
 317              		.cfi_endproc
 318              	.LFE254:
 319              		.size	rxend, .-rxend
 320              		.section	.text.RC_get,"ax",%progbits
 321              		.align	1
 322              		.p2align 4,,15
 323              		.global	RC_get
 324              		.syntax unified
 325              		.thumb
 326              		.thumb_func
 327              		.fpu softvfp
 328              		.type	RC_get, %function
 329              	RC_get:
 330              	.LFB255:
 331              		.loc 1 59 0
 332              		.cfi_startproc
 333              		@ args = 0, pretend = 0, frame = 0
 334              		@ frame_needed = 0, uses_anonymous_args = 0
 335              		@ link register save eliminated.
 336              		.loc 1 61 0
 337 0000 0048     		ldr	r0, .L18
 338 0002 7047     		bx	lr
 339              	.L19:
 340              		.align	2
 341              	.L18:
 342 0004 00000000 		.word	.LANCHOR3
ARM GAS  C:\Users\Pearl\AppData\Local\Temp\cc4hQ0L2.s 			page 7


 343              		.cfi_endproc
 344              	.LFE255:
 345              		.size	RC_get, .-RC_get
 346              		.section	.text.RC_init,"ax",%progbits
 347              		.align	1
 348              		.p2align 4,,15
 349              		.global	RC_init
 350              		.syntax unified
 351              		.thumb
 352              		.thumb_func
 353              		.fpu softvfp
 354              		.type	RC_init, %function
 355              	RC_init:
 356              	.LFB258:
 357              		.loc 1 122 0
 358              		.cfi_startproc
 359              		@ args = 0, pretend = 0, frame = 0
 360              		@ frame_needed = 0, uses_anonymous_args = 0
 361 0000 30B5     		push	{r4, r5, lr}
 362              		.cfi_def_cfa_offset 12
 363              		.cfi_offset 4, -12
 364              		.cfi_offset 5, -8
 365              		.cfi_offset 14, -4
 366              	.LBB138:
 367              	.LBB139:
 368              		.loc 1 65 0
 369 0002 4FF00422 		mov	r2, #67109888
 370              		.loc 1 68 0
 371 0006 0024     		movs	r4, #0
 372              		.loc 1 65 0
 373 0008 0B4B     		ldr	r3, .L22
 374              	.LBE139:
 375              	.LBE138:
 376              		.loc 1 125 0
 377 000a 0C4D     		ldr	r5, .L22+4
 378              		.loc 1 122 0
 379 000c 83B0     		sub	sp, sp, #12
 380              		.cfi_def_cfa_offset 24
 381              	.LBB141:
 382              	.LBB140:
 383              		.loc 1 66 0
 384 000e C3E90022 		strd	r2, r2, [r3]
 385              		.loc 1 68 0
 386 0012 1C81     		strh	r4, [r3, #8]	@ movhi
 387              	.LBE140:
 388              	.LBE141:
 389              		.loc 1 125 0
 390 0014 2846     		mov	r0, r5
 391 0016 0A49     		ldr	r1, .L22+8
 392 0018 FFF7FEFF 		bl	uartStart
 393              	.LVL19:
 394              		.loc 1 126 0
 395 001c 6869     		ldr	r0, [r5, #20]
 396 001e FFF7FEFF 		bl	dmaStreamRelease
 397              	.LVL20:
 398              		.loc 1 128 0
 399 0022 0094     		str	r4, [sp]
ARM GAS  C:\Users\Pearl\AppData\Local\Temp\cc4hQ0L2.s 			page 8


 400 0024 074B     		ldr	r3, .L22+12
 401 0026 8722     		movs	r2, #135
 402 0028 4FF43271 		mov	r1, #712
 403 002c 0648     		ldr	r0, .L22+16
 404 002e FFF7FEFF 		bl	chThdCreateStatic
 405              	.LVL21:
 406              		.loc 1 131 0
 407 0032 03B0     		add	sp, sp, #12
 408              		.cfi_def_cfa_offset 12
 409              		@ sp needed
 410 0034 30BD     		pop	{r4, r5, pc}
 411              	.L23:
 412 0036 00BF     		.align	2
 413              	.L22:
 414 0038 00000000 		.word	.LANCHOR3
 415 003c 00000000 		.word	UARTD2
 416 0040 00000000 		.word	.LANCHOR4
 417 0044 00000000 		.word	uart_dbus_thread
 418 0048 00000000 		.word	.LANCHOR5
 419              		.cfi_endproc
 420              	.LFE258:
 421              		.size	RC_init, .-RC_init
 422              		.section	.bss.RC_Ctl,"aw",%nobits
 423              		.align	2
 424              		.set	.LANCHOR3,. + 0
 425              		.type	RC_Ctl, %object
 426              		.size	RC_Ctl, 10
 427              	RC_Ctl:
 428 0000 00000000 		.space	10
 428      00000000 
 428      0000
 429              		.section	.bss.rc_state,"aw",%nobits
 430              		.set	.LANCHOR2,. + 0
 431              		.type	rc_state, %object
 432              		.size	rc_state, 1
 433              	rc_state:
 434 0000 00       		.space	1
 435              		.section	.bss.rxbuf,"aw",%nobits
 436              		.align	2
 437              		.set	.LANCHOR0,. + 0
 438              		.type	rxbuf, %object
 439              		.size	rxbuf, 18
 440              	rxbuf:
 441 0000 00000000 		.space	18
 441      00000000 
 441      00000000 
 441      00000000 
 441      0000
 442              		.section	.bss.uart_dbus_thread_handler,"aw",%nobits
 443              		.align	2
 444              		.set	.LANCHOR1,. + 0
 445              		.type	uart_dbus_thread_handler, %object
 446              		.size	uart_dbus_thread_handler, 4
 447              	uart_dbus_thread_handler:
 448 0000 00000000 		.space	4
 449              		.section	.bss.uart_dbus_thread_wa,"aw",%nobits
 450              		.align	3
ARM GAS  C:\Users\Pearl\AppData\Local\Temp\cc4hQ0L2.s 			page 9


 451              		.set	.LANCHOR5,. + 0
 452              		.type	uart_dbus_thread_wa, %object
 453              		.size	uart_dbus_thread_wa, 712
 454              	uart_dbus_thread_wa:
 455 0000 00000000 		.space	712
 455      00000000 
 455      00000000 
 455      00000000 
 455      00000000 
 456              		.section	.data.uart_cfg,"aw",%progbits
 457              		.align	2
 458              		.set	.LANCHOR4,. + 0
 459              		.type	uart_cfg, %object
 460              		.size	uart_cfg, 32
 461              	uart_cfg:
 462 0000 00000000 		.word	0
 463 0004 00000000 		.word	0
 464 0008 00000000 		.word	rxend
 465 000c 00000000 		.word	0
 466 0010 00000000 		.word	0
 467 0014 A0860100 		.word	100000
 468 0018 0004     		.short	1024
 469 001a 0000     		.short	0
 470 001c 0000     		.short	0
 471 001e 0000     		.space	2
 472              		.section	.rodata.uart_dbus_thread.str1.4,"aMS",%progbits,1
 473              		.align	2
 474              	.LC0:
 475 0000 75617274 		.ascii	"uart dbus receiver\000"
 475      20646275 
 475      73207265 
 475      63656976 
 475      657200
 476              		.text
 477              	.Letext0:
 478              		.file 4 "c:\\chibistudio\\tools\\gnu tools arm embedded\\7.0 2017q4\\lib\\gcc\\arm-none-eabi\\7.2.
 479              		.file 5 "c:\\chibistudio\\tools\\gnu tools arm embedded\\7.0 2017q4\\arm-none-eabi\\include\\machi
 480              		.file 6 "c:\\chibistudio\\tools\\gnu tools arm embedded\\7.0 2017q4\\arm-none-eabi\\include\\sys\\
 481              		.file 7 ".//os/common/ports/ARMCMx/compilers/GCC/chtypes.h"
 482              		.file 8 ".//os/rt/include/chsystypes.h"
 483              		.file 9 ".//os/rt/include/chschd.h"
 484              		.file 10 ".//os/rt/include/chtime.h"
 485              		.file 11 ".//os/common/ext/ARM/CMSIS/Core/Include/core_cm3.h"
 486              		.file 12 ".//os/common/ext/ST/STM32F1xx/system_stm32f1xx.h"
 487              		.file 13 ".//os/common/ext/ST/STM32F1xx/stm32f103xb.h"
 488              		.file 14 ".//os/common/ports/ARMCMx/chcore.h"
 489              		.file 15 ".//os/common/ports/ARMCMx/chcore_v7m.h"
 490              		.file 16 ".//os/rt/include/chsem.h"
 491              		.file 17 ".//os/rt/include/chmtx.h"
 492              		.file 18 ".//os/rt/include/chsys.h"
 493              		.file 19 ".//os/rt/include/chevents.h"
 494              		.file 20 ".//os/lib/include/chmemcore.h"
 495              		.file 21 ".//os/lib/include/chmempools.h"
 496              		.file 22 ".//os/lib/include/chfactory.h"
 497              		.file 23 ".//os/hal/ports/STM32/LLD/DMAv1/stm32_dma.h"
 498              		.file 24 ".//os/hal/include/hal_pal.h"
 499              		.file 25 ".//os/hal/ports/STM32/LLD/GPIOv1/hal_pal_lld.h"
ARM GAS  C:\Users\Pearl\AppData\Local\Temp\cc4hQ0L2.s 			page 10


 500              		.file 26 ".//os/hal/include/hal_can.h"
 501              		.file 27 ".//os/hal/ports/STM32/LLD/CANv1/hal_can_lld.h"
 502              		.file 28 ".//os/hal/include/hal_uart.h"
 503              		.file 29 ".//os/hal/ports/STM32/LLD/USARTv1/hal_uart_lld.h"
 504              		.file 30 "./src/dbus.h"
 505              		.file 31 ".//os/rt/include/chthreads.h"